
files/harmless/npp.7.5.1.Installer.exe:     file format pei-i386


Disassembly of section .text:

00401000 <.text>:
  401000:	55                   	push   %ebp
  401001:	8b ec                	mov    %esp,%ebp
  401003:	83 ec 5c             	sub    $0x5c,%esp
  401006:	83 7d 0c 0f          	cmpl   $0xf,0xc(%ebp)
  40100a:	74 2b                	je     0x401037
  40100c:	83 7d 0c 46          	cmpl   $0x46,0xc(%ebp)
  401010:	8b 45 14             	mov    0x14(%ebp),%eax
  401013:	75 0d                	jne    0x401022
  401015:	83 48 18 10          	orl    $0x10,0x18(%eax)
  401019:	8b 0d 48 a2 42 00    	mov    0x42a248,%ecx
  40101f:	89 48 04             	mov    %ecx,0x4(%eax)
  401022:	50                   	push   %eax
  401023:	ff 75 10             	pushl  0x10(%ebp)
  401026:	ff 75 0c             	pushl  0xc(%ebp)
  401029:	ff 75 08             	pushl  0x8(%ebp)
  40102c:	ff 15 24 82 40 00    	call   *0x408224
  401032:	e9 42 01 00 00       	jmp    0x401179
  401037:	53                   	push   %ebx
  401038:	56                   	push   %esi
  401039:	8b 35 50 a2 42 00    	mov    0x42a250,%esi
  40103f:	8d 45 a4             	lea    -0x5c(%ebp),%eax
  401042:	57                   	push   %edi
  401043:	50                   	push   %eax
  401044:	ff 75 08             	pushl  0x8(%ebp)
  401047:	ff 15 28 82 40 00    	call   *0x408228
  40104d:	83 65 f4 00          	andl   $0x0,-0xc(%ebp)
  401051:	89 45 0c             	mov    %eax,0xc(%ebp)
  401054:	8d 45 e4             	lea    -0x1c(%ebp),%eax
  401057:	50                   	push   %eax
  401058:	ff 75 08             	pushl  0x8(%ebp)
  40105b:	ff 15 2c 82 40 00    	call   *0x40822c
  401061:	8b 7d f0             	mov    -0x10(%ebp),%edi
  401064:	83 65 f0 00          	andl   $0x0,-0x10(%ebp)
  401068:	8b 1d 5c 80 40 00    	mov    0x40805c,%ebx
  40106e:	e9 80 00 00 00       	jmp    0x4010f3
  401073:	0f b6 46 52          	movzbl 0x52(%esi),%eax
  401077:	0f b6 56 56          	movzbl 0x56(%esi),%edx
  40107b:	0f af 55 e8          	imul   -0x18(%ebp),%edx
  40107f:	8b cf                	mov    %edi,%ecx
  401081:	2b 4d e8             	sub    -0x18(%ebp),%ecx
  401084:	0f af c1             	imul   %ecx,%eax
  401087:	03 c2                	add    %edx,%eax
  401089:	89 4d 10             	mov    %ecx,0x10(%ebp)
  40108c:	99                   	cltd   
  40108d:	f7 ff                	idiv   %edi
  40108f:	33 d2                	xor    %edx,%edx
  401091:	8a f0                	mov    %al,%dh
  401093:	0f b6 46 51          	movzbl 0x51(%esi),%eax
  401097:	0f af c1             	imul   %ecx,%eax
  40109a:	0f b6 4e 55          	movzbl 0x55(%esi),%ecx
  40109e:	0f af 4d e8          	imul   -0x18(%ebp),%ecx
  4010a2:	03 c1                	add    %ecx,%eax
  4010a4:	8b ca                	mov    %edx,%ecx
  4010a6:	99                   	cltd   
  4010a7:	f7 ff                	idiv   %edi
  4010a9:	0f b6 56 54          	movzbl 0x54(%esi),%edx
  4010ad:	0f af 55 e8          	imul   -0x18(%ebp),%edx
  4010b1:	8a c8                	mov    %al,%cl
  4010b3:	0f b6 46 50          	movzbl 0x50(%esi),%eax
  4010b7:	0f af 45 10          	imul   0x10(%ebp),%eax
  4010bb:	03 c2                	add    %edx,%eax
  4010bd:	99                   	cltd   
  4010be:	f7 ff                	idiv   %edi
  4010c0:	c1 e1 08             	shl    $0x8,%ecx
  4010c3:	0f b6 c0             	movzbl %al,%eax
  4010c6:	0b c8                	or     %eax,%ecx
  4010c8:	8d 45 f4             	lea    -0xc(%ebp),%eax
  4010cb:	50                   	push   %eax
  4010cc:	89 4d f8             	mov    %ecx,-0x8(%ebp)
  4010cf:	ff 15 64 80 40 00    	call   *0x408064
  4010d5:	83 45 f0 04          	addl   $0x4,-0x10(%ebp)
  4010d9:	89 45 14             	mov    %eax,0x14(%ebp)
  4010dc:	50                   	push   %eax
  4010dd:	8d 45 e4             	lea    -0x1c(%ebp),%eax
  4010e0:	50                   	push   %eax
  4010e1:	ff 75 0c             	pushl  0xc(%ebp)
  4010e4:	ff 15 30 82 40 00    	call   *0x408230
  4010ea:	ff 75 14             	pushl  0x14(%ebp)
  4010ed:	ff d3                	call   *%ebx
  4010ef:	83 45 e8 04          	addl   $0x4,-0x18(%ebp)
  4010f3:	39 7d e8             	cmp    %edi,-0x18(%ebp)
  4010f6:	0f 8c 77 ff ff ff    	jl     0x401073
  4010fc:	83 7e 58 ff          	cmpl   $0xffffffff,0x58(%esi)
  401100:	74 65                	je     0x401167
  401102:	ff 76 34             	pushl  0x34(%esi)
  401105:	ff 15 54 80 40 00    	call   *0x408054
  40110b:	85 c0                	test   %eax,%eax
  40110d:	89 45 14             	mov    %eax,0x14(%ebp)
  401110:	74 55                	je     0x401167
  401112:	8b 7d 0c             	mov    0xc(%ebp),%edi
  401115:	6a 01                	push   $0x1
  401117:	57                   	push   %edi
  401118:	c7 45 e4 10 00 00 00 	movl   $0x10,-0x1c(%ebp)
  40111f:	c7 45 e8 08 00 00 00 	movl   $0x8,-0x18(%ebp)
  401126:	ff 15 50 80 40 00    	call   *0x408050
  40112c:	ff 76 58             	pushl  0x58(%esi)
  40112f:	57                   	push   %edi
  401130:	ff 15 58 80 40 00    	call   *0x408058
  401136:	ff 75 14             	pushl  0x14(%ebp)
  401139:	8b 35 4c 80 40 00    	mov    0x40804c,%esi
  40113f:	57                   	push   %edi
  401140:	ff d6                	call   *%esi
  401142:	89 45 0c             	mov    %eax,0xc(%ebp)
  401145:	8d 45 e4             	lea    -0x1c(%ebp),%eax
  401148:	68 20 08 00 00       	push   $0x820
  40114d:	50                   	push   %eax
  40114e:	6a ff                	push   $0xffffffff
  401150:	68 40 92 42 00       	push   $0x429240
  401155:	57                   	push   %edi
  401156:	ff 15 88 82 40 00    	call   *0x408288
  40115c:	ff 75 0c             	pushl  0xc(%ebp)
  40115f:	57                   	push   %edi
  401160:	ff d6                	call   *%esi
  401162:	ff 75 14             	pushl  0x14(%ebp)
  401165:	ff d3                	call   *%ebx
  401167:	8d 45 a4             	lea    -0x5c(%ebp),%eax
  40116a:	50                   	push   %eax
  40116b:	ff 75 08             	pushl  0x8(%ebp)
  40116e:	ff 15 8c 82 40 00    	call   *0x40828c
  401174:	5f                   	pop    %edi
  401175:	5e                   	pop    %esi
  401176:	33 c0                	xor    %eax,%eax
  401178:	5b                   	pop    %ebx
  401179:	c9                   	leave  
  40117a:	c2 10 00             	ret    $0x10
  40117d:	8b 4c 24 04          	mov    0x4(%esp),%ecx
  401181:	a1 68 a2 42 00       	mov    0x42a268,%eax
  401186:	8b d1                	mov    %ecx,%edx
  401188:	53                   	push   %ebx
  401189:	69 d2 18 08 00 00    	imul   $0x818,%edx,%edx
  40118f:	56                   	push   %esi
  401190:	57                   	push   %edi
  401191:	8b 54 02 08          	mov    0x8(%edx,%eax,1),%edx
  401195:	f6 c2 02             	test   $0x2,%dl
  401198:	74 4f                	je     0x4011e9
  40119a:	8d 71 01             	lea    0x1(%ecx),%esi
  40119d:	33 ff                	xor    %edi,%edi
  40119f:	3b 35 6c a2 42 00    	cmp    0x42a26c,%esi
  4011a5:	73 42                	jae    0x4011e9
  4011a7:	8b ce                	mov    %esi,%ecx
  4011a9:	69 c9 18 08 00 00    	imul   $0x818,%ecx,%ecx
  4011af:	8d 44 01 08          	lea    0x8(%ecx,%eax,1),%eax
  4011b3:	8b 08                	mov    (%eax),%ecx
  4011b5:	f6 c1 02             	test   $0x2,%cl
  4011b8:	74 03                	je     0x4011bd
  4011ba:	47                   	inc    %edi
  4011bb:	eb 1e                	jmp    0x4011db
  4011bd:	f6 c1 04             	test   $0x4,%cl
  4011c0:	74 09                	je     0x4011cb
  4011c2:	8b cf                	mov    %edi,%ecx
  4011c4:	4f                   	dec    %edi
  4011c5:	85 c9                	test   %ecx,%ecx
  4011c7:	74 20                	je     0x4011e9
  4011c9:	eb 10                	jmp    0x4011db
  4011cb:	f6 c1 10             	test   $0x10,%cl
  4011ce:	75 0b                	jne    0x4011db
  4011d0:	8b d9                	mov    %ecx,%ebx
  4011d2:	33 da                	xor    %edx,%ebx
  4011d4:	83 e3 01             	and    $0x1,%ebx
  4011d7:	33 d9                	xor    %ecx,%ebx
  4011d9:	89 18                	mov    %ebx,(%eax)
  4011db:	46                   	inc    %esi
  4011dc:	05 18 08 00 00       	add    $0x818,%eax
  4011e1:	3b 35 6c a2 42 00    	cmp    0x42a26c,%esi
  4011e7:	72 ca                	jb     0x4011b3
  4011e9:	5f                   	pop    %edi
  4011ea:	5e                   	pop    %esi
  4011eb:	5b                   	pop    %ebx
  4011ec:	c2 04 00             	ret    $0x4
  4011ef:	55                   	push   %ebp
  4011f0:	8b ec                	mov    %esp,%ebp
  4011f2:	51                   	push   %ecx
  4011f3:	51                   	push   %ecx
  4011f4:	8b 55 08             	mov    0x8(%ebp),%edx
  4011f7:	53                   	push   %ebx
  4011f8:	56                   	push   %esi
  4011f9:	8b f2                	mov    %edx,%esi
  4011fb:	69 f6 18 08 00 00    	imul   $0x818,%esi,%esi
  401201:	8b 1d 68 a2 42 00    	mov    0x42a268,%ebx
  401207:	33 c9                	xor    %ecx,%ecx
  401209:	03 f3                	add    %ebx,%esi
  40120b:	57                   	push   %edi
  40120c:	89 4d fc             	mov    %ecx,-0x4(%ebp)
  40120f:	89 4d f8             	mov    %ecx,-0x8(%ebp)
  401212:	8b 46 08             	mov    0x8(%esi),%eax
  401215:	a8 02                	test   $0x2,%al
  401217:	74 0b                	je     0x401224
  401219:	39 4d 0c             	cmp    %ecx,0xc(%ebp)
  40121c:	74 06                	je     0x401224
  40121e:	24 be                	and    $0xbe,%al
  401220:	42                   	inc    %edx
  401221:	89 46 08             	mov    %eax,0x8(%esi)
  401224:	3b 15 6c a2 42 00    	cmp    0x42a26c,%edx
  40122a:	73 44                	jae    0x401270
  40122c:	8b c2                	mov    %edx,%eax
  40122e:	69 c0 18 08 00 00    	imul   $0x818,%eax,%eax
  401234:	8d 7c 18 08          	lea    0x8(%eax,%ebx,1),%edi
  401238:	8d 42 01             	lea    0x1(%edx),%eax
  40123b:	8b 0f                	mov    (%edi),%ecx
  40123d:	f6 c1 02             	test   $0x2,%cl
  401240:	74 0a                	je     0x40124c
  401242:	6a 01                	push   $0x1
  401244:	52                   	push   %edx
  401245:	e8 a5 ff ff ff       	call   0x4011ef
  40124a:	8b 0f                	mov    (%edi),%ecx
  40124c:	f6 c1 04             	test   $0x4,%cl
  40124f:	75 28                	jne    0x401279
  401251:	f6 c1 40             	test   $0x40,%cl
  401254:	74 03                	je     0x401259
  401256:	ff 45 fc             	incl   -0x4(%ebp)
  401259:	f6 c1 01             	test   $0x1,%cl
  40125c:	74 05                	je     0x401263
  40125e:	ff 45 fc             	incl   -0x4(%ebp)
  401261:	eb 03                	jmp    0x401266
  401263:	ff 45 f8             	incl   -0x8(%ebp)
  401266:	3b 05 6c a2 42 00    	cmp    0x42a26c,%eax
  40126c:	8b d0                	mov    %eax,%edx
  40126e:	72 bc                	jb     0x40122c
  401270:	33 c0                	xor    %eax,%eax
  401272:	5f                   	pop    %edi
  401273:	5e                   	pop    %esi
  401274:	5b                   	pop    %ebx
  401275:	c9                   	leave  
  401276:	c2 08 00             	ret    $0x8
  401279:	83 7d fc 00          	cmpl   $0x0,-0x4(%ebp)
  40127d:	74 f3                	je     0x401272
  40127f:	83 7d f8 00          	cmpl   $0x0,-0x8(%ebp)
  401283:	74 06                	je     0x40128b
  401285:	83 4e 08 40          	orl    $0x40,0x8(%esi)
  401289:	eb e7                	jmp    0x401272
  40128b:	8b 4e 08             	mov    0x8(%esi),%ecx
  40128e:	80 e1 7f             	and    $0x7f,%cl
  401291:	83 c9 01             	or     $0x1,%ecx
  401294:	89 4e 08             	mov    %ecx,0x8(%esi)
  401297:	eb d9                	jmp    0x401272
  401299:	8b 4c 24 04          	mov    0x4(%esp),%ecx
  40129d:	a1 68 a2 42 00       	mov    0x42a268,%eax
  4012a2:	56                   	push   %esi
  4012a3:	33 f6                	xor    %esi,%esi
  4012a5:	83 f9 20             	cmp    $0x20,%ecx
  4012a8:	73 34                	jae    0x4012de
  4012aa:	39 35 6c a2 42 00    	cmp    %esi,0x42a26c
  4012b0:	76 2c                	jbe    0x4012de
  4012b2:	8d 50 08             	lea    0x8(%eax),%edx
  4012b5:	57                   	push   %edi
  4012b6:	8b 02                	mov    (%edx),%eax
  4012b8:	a8 06                	test   $0x6,%al
  4012ba:	75 12                	jne    0x4012ce
  4012bc:	33 ff                	xor    %edi,%edi
  4012be:	47                   	inc    %edi
  4012bf:	d3 e7                	shl    %cl,%edi
  4012c1:	85 7a fc             	test   %edi,-0x4(%edx)
  4012c4:	74 04                	je     0x4012ca
  4012c6:	0c 01                	or     $0x1,%al
  4012c8:	eb 02                	jmp    0x4012cc
  4012ca:	24 fe                	and    $0xfe,%al
  4012cc:	89 02                	mov    %eax,(%edx)
  4012ce:	46                   	inc    %esi
  4012cf:	81 c2 18 08 00 00    	add    $0x818,%edx
  4012d5:	3b 35 6c a2 42 00    	cmp    0x42a26c,%esi
  4012db:	72 d9                	jb     0x4012b6
  4012dd:	5f                   	pop    %edi
  4012de:	5e                   	pop    %esi
  4012df:	c2 04 00             	ret    $0x4
  4012e2:	55                   	push   %ebp
  4012e3:	8b ec                	mov    %esp,%ebp
  4012e5:	83 ec 0c             	sub    $0xc,%esp
  4012e8:	a1 50 a2 42 00       	mov    0x42a250,%eax
  4012ed:	83 65 fc 00          	andl   $0x0,-0x4(%ebp)
  4012f1:	53                   	push   %ebx
  4012f2:	56                   	push   %esi
  4012f3:	05 94 00 00 00       	add    $0x94,%eax
  4012f8:	57                   	push   %edi
  4012f9:	8b 3d 6c a2 42 00    	mov    0x42a26c,%edi
  4012ff:	89 45 f8             	mov    %eax,-0x8(%ebp)
  401302:	8b 45 f8             	mov    -0x8(%ebp),%eax
  401305:	33 db                	xor    %ebx,%ebx
  401307:	39 18                	cmp    %ebx,(%eax)
  401309:	74 4b                	je     0x401356
  40130b:	3b df                	cmp    %edi,%ebx
  40130d:	73 45                	jae    0x401354
  40130f:	8b 35 68 a2 42 00    	mov    0x42a268,%esi
  401315:	83 c6 08             	add    $0x8,%esi
  401318:	8b 16                	mov    (%esi),%edx
  40131a:	f6 c2 06             	test   $0x6,%dl
  40131d:	75 28                	jne    0x401347
  40131f:	8b 45 08             	mov    0x8(%ebp),%eax
  401322:	85 c0                	test   %eax,%eax
  401324:	74 06                	je     0x40132c
  401326:	83 3c 98 00          	cmpl   $0x0,(%eax,%ebx,4)
  40132a:	74 1b                	je     0x401347
  40132c:	8b 4d fc             	mov    -0x4(%ebp),%ecx
  40132f:	33 c0                	xor    %eax,%eax
  401331:	40                   	inc    %eax
  401332:	83 e2 01             	and    $0x1,%edx
  401335:	d3 e0                	shl    %cl,%eax
  401337:	8b 4e fc             	mov    -0x4(%esi),%ecx
  40133a:	23 c8                	and    %eax,%ecx
  40133c:	8b c1                	mov    %ecx,%eax
  40133e:	8b 4d fc             	mov    -0x4(%ebp),%ecx
  401341:	d3 e2                	shl    %cl,%edx
  401343:	3b c2                	cmp    %edx,%eax
  401345:	75 0b                	jne    0x401352
  401347:	43                   	inc    %ebx
  401348:	81 c6 18 08 00 00    	add    $0x818,%esi
  40134e:	3b df                	cmp    %edi,%ebx
  401350:	72 c6                	jb     0x401318
  401352:	3b df                	cmp    %edi,%ebx
  401354:	74 0d                	je     0x401363
  401356:	ff 45 fc             	incl   -0x4(%ebp)
  401359:	83 45 f8 04          	addl   $0x4,-0x8(%ebp)
  40135d:	83 7d fc 20          	cmpl   $0x20,-0x4(%ebp)
  401361:	72 9f                	jb     0x401302
  401363:	8b 45 fc             	mov    -0x4(%ebp),%eax
  401366:	5f                   	pop    %edi
  401367:	5e                   	pop    %esi
  401368:	5b                   	pop    %ebx
  401369:	c9                   	leave  
  40136a:	c2 04 00             	ret    $0x4
  40136d:	8b 44 24 04          	mov    0x4(%esp),%eax
  401371:	85 c0                	test   %eax,%eax
  401373:	7d 11                	jge    0x401386
  401375:	40                   	inc    %eax
  401376:	b9 00 b0 42 00       	mov    $0x42b000,%ecx
  40137b:	c1 e0 0b             	shl    $0xb,%eax
  40137e:	2b c8                	sub    %eax,%ecx
  401380:	51                   	push   %ecx
  401381:	e8 ec 4d 00 00       	call   0x406172
  401386:	c2 04 00             	ret    $0x4
  401389:	56                   	push   %esi
  40138a:	8b 74 24 08          	mov    0x8(%esp),%esi
  40138e:	eb 6a                	jmp    0x4013fa
  401390:	8b c6                	mov    %esi,%eax
  401392:	8b 0d 70 a2 42 00    	mov    0x42a270,%ecx
  401398:	6b c0 1c             	imul   $0x1c,%eax,%eax
  40139b:	03 c1                	add    %ecx,%eax
  40139d:	83 38 01             	cmpl   $0x1,(%eax)
  4013a0:	74 5c                	je     0x4013fe
  4013a2:	50                   	push   %eax
  4013a3:	e8 8c 00 00 00       	call   0x401434
  4013a8:	3d ff ff ff 7f       	cmp    $0x7fffffff,%eax
  4013ad:	74 55                	je     0x401404
  4013af:	50                   	push   %eax
  4013b0:	e8 b8 ff ff ff       	call   0x40136d
  4013b5:	85 c0                	test   %eax,%eax
  4013b7:	75 04                	jne    0x4013bd
  4013b9:	40                   	inc    %eax
  4013ba:	46                   	inc    %esi
  4013bb:	eb 07                	jmp    0x4013c4
  4013bd:	48                   	dec    %eax
  4013be:	8b ce                	mov    %esi,%ecx
  4013c0:	8b f0                	mov    %eax,%esi
  4013c2:	2b c1                	sub    %ecx,%eax
  4013c4:	83 7c 24 0c 00       	cmpl   $0x0,0xc(%esp)
  4013c9:	74 2f                	je     0x4013fa
  4013cb:	01 05 2c 92 42 00    	add    %eax,0x42922c
  4013d1:	6a 00                	push   $0x0
  4013d3:	ff 35 14 92 42 00    	pushl  0x429214
  4013d9:	68 30 75 00 00       	push   $0x7530
  4013de:	ff 35 2c 92 42 00    	pushl  0x42922c
  4013e4:	ff 15 54 81 40 00    	call   *0x408154
  4013ea:	50                   	push   %eax
  4013eb:	68 02 04 00 00       	push   $0x402
  4013f0:	ff 74 24 18          	pushl  0x18(%esp)
  4013f4:	ff 15 20 82 40 00    	call   *0x408220
  4013fa:	85 f6                	test   %esi,%esi
  4013fc:	7d 92                	jge    0x401390
  4013fe:	33 c0                	xor    %eax,%eax
  401400:	5e                   	pop    %esi
  401401:	c2 08 00             	ret    $0x8
  401404:	b8 ff ff ff 7f       	mov    $0x7fffffff,%eax
  401409:	eb f5                	jmp    0x401400
  40140b:	8b 44 24 04          	mov    0x4(%esp),%eax
  40140f:	8b 0d 50 a2 42 00    	mov    0x42a250,%ecx
  401415:	6a 00                	push   $0x0
  401417:	ff 74 81 6c          	pushl  0x6c(%ecx,%eax,4)
  40141b:	e8 69 ff ff ff       	call   0x401389
  401420:	c2 04 00             	ret    $0x4
  401423:	68 d8 ad 40 00       	push   $0x40add8
  401428:	ff 74 24 08          	pushl  0x8(%esp)
  40142c:	e8 40 3f 00 00       	call   0x405371
  401431:	c2 04 00             	ret    $0x4
  401434:	55                   	push   %ebp
  401435:	8b ec                	mov    %esp,%ebp
  401437:	81 ec b8 02 00 00    	sub    $0x2b8,%esp
  40143d:	53                   	push   %ebx
  40143e:	56                   	push   %esi
  40143f:	8b 75 08             	mov    0x8(%ebp),%esi
  401442:	57                   	push   %edi
  401443:	a1 48 a2 42 00       	mov    0x42a248,%eax
  401448:	6a 07                	push   $0x7
  40144a:	59                   	pop    %ecx
  40144b:	8d 7d d4             	lea    -0x2c(%ebp),%edi
  40144e:	f3 a5                	rep movsl %ds:(%esi),%es:(%edi)
  401450:	8b 4d dc             	mov    -0x24(%ebp),%ecx
  401453:	8b 55 d4             	mov    -0x2c(%ebp),%edx
  401456:	bf 00 b0 42 00       	mov    $0x42b000,%edi
  40145b:	89 45 f8             	mov    %eax,-0x8(%ebp)
  40145e:	8b 45 d8             	mov    -0x28(%ebp),%eax
  401461:	33 db                	xor    %ebx,%ebx
  401463:	c1 e1 0b             	shl    $0xb,%ecx
  401466:	03 cf                	add    %edi,%ecx
  401468:	8b f0                	mov    %eax,%esi
  40146a:	89 4d f4             	mov    %ecx,-0xc(%ebp)
  40146d:	8d 4d d8             	lea    -0x28(%ebp),%ecx
  401470:	c1 e6 0b             	shl    $0xb,%esi
  401473:	89 0d d8 cd 40 00    	mov    %ecx,0x40cdd8
  401479:	8d 4a fe             	lea    -0x2(%edx),%ecx
  40147c:	03 f7                	add    %edi,%esi
  40147e:	83 f9 43             	cmp    $0x43,%ecx
  401481:	89 5d fc             	mov    %ebx,-0x4(%ebp)
  401484:	0f 87 51 16 00 00    	ja     0x402adb
  40148a:	ff 24 8d ed 2a 40 00 	jmp    *0x402aed(,%ecx,4)
  401491:	53                   	push   %ebx
  401492:	50                   	push   %eax
  401493:	e8 d9 3e 00 00       	call   0x405371
  401498:	e9 5a 0e 00 00       	jmp    0x4022f7
  40149d:	ff 05 0c 92 42 00    	incl   0x42920c
  4014a3:	39 5d f8             	cmp    %ebx,-0x8(%ebp)
  4014a6:	0f 84 4b 0e 00 00    	je     0x4022f7
  4014ac:	53                   	push   %ebx
  4014ad:	ff 15 64 82 40 00    	call   *0x408264
  4014b3:	e9 3f 0e 00 00       	jmp    0x4022f7
  4014b8:	50                   	push   %eax
  4014b9:	e8 af fe ff ff       	call   0x40136d
  4014be:	48                   	dec    %eax
  4014bf:	53                   	push   %ebx
  4014c0:	50                   	push   %eax
  4014c1:	e8 c3 fe ff ff       	call   0x401389
  4014c6:	e9 1b 16 00 00       	jmp    0x402ae6
  4014cb:	53                   	push   %ebx
  4014cc:	50                   	push   %eax
  4014cd:	e8 9f 3e 00 00       	call   0x405371
  4014d2:	e9 04 16 00 00       	jmp    0x402adb
  4014d7:	53                   	push   %ebx
  4014d8:	e8 54 17 00 00       	call   0x402c31
  4014dd:	83 f8 01             	cmp    $0x1,%eax
  4014e0:	59                   	pop    %ecx
  4014e1:	89 55 b0             	mov    %edx,-0x50(%ebp)
  4014e4:	7f 03                	jg     0x4014e9
  4014e6:	33 c0                	xor    %eax,%eax
  4014e8:	40                   	inc    %eax
  4014e9:	50                   	push   %eax
  4014ea:	ff 15 7c 80 40 00    	call   *0x40807c
  4014f0:	e9 e6 15 00 00       	jmp    0x402adb
  4014f5:	ff 75 f8             	pushl  -0x8(%ebp)
  4014f8:	ff 15 98 82 40 00    	call   *0x408298
  4014fe:	e9 d8 15 00 00       	jmp    0x402adb
  401503:	c1 e0 02             	shl    $0x2,%eax
  401506:	39 5d e0             	cmp    %ebx,-0x20(%ebp)
  401509:	75 26                	jne    0x401531
  40150b:	8b 88 c0 a2 42 00    	mov    0x42a2c0(%eax),%ecx
  401511:	6a 01                	push   $0x1
  401513:	89 88 00 a3 42 00    	mov    %ecx,0x42a300(%eax)
  401519:	e8 13 17 00 00       	call   0x402c31
  40151e:	59                   	pop    %ecx
  40151f:	89 55 b0             	mov    %edx,-0x50(%ebp)
  401522:	8b 4d d8             	mov    -0x28(%ebp),%ecx
  401525:	89 04 8d c0 a2 42 00 	mov    %eax,0x42a2c0(,%ecx,4)
  40152c:	e9 aa 15 00 00       	jmp    0x402adb
  401531:	8b 88 00 a3 42 00    	mov    0x42a300(%eax),%ecx
  401537:	89 88 c0 a2 42 00    	mov    %ecx,0x42a2c0(%eax)
  40153d:	e9 99 15 00 00       	jmp    0x402adb
  401542:	8b 45 e0             	mov    -0x20(%ebp),%eax
  401545:	8d 34 85 c0 a2 42 00 	lea    0x42a2c0(,%eax,4),%esi
  40154c:	33 c0                	xor    %eax,%eax
  40154e:	8b 0e                	mov    (%esi),%ecx
  401550:	3b cb                	cmp    %ebx,%ecx
  401552:	0f 94 c0             	sete   %al
  401555:	23 4d e4             	and    -0x1c(%ebp),%ecx
  401558:	8b 44 85 d8          	mov    -0x28(%ebp,%eax,4),%eax
  40155c:	89 0e                	mov    %ecx,(%esi)
  40155e:	e9 83 15 00 00       	jmp    0x402ae6
  401563:	8b 45 dc             	mov    -0x24(%ebp),%eax
  401566:	ff 34 85 c0 a2 42 00 	pushl  0x42a2c0(,%eax,4)
  40156d:	56                   	push   %esi
  40156e:	e9 0e 15 00 00       	jmp    0x402a81
  401573:	8b 0d 10 92 42 00    	mov    0x429210,%ecx
  401579:	8b 35 68 82 40 00    	mov    0x408268,%esi
  40157f:	3b cb                	cmp    %ebx,%ecx
  401581:	74 09                	je     0x40158c
  401583:	ff 75 dc             	pushl  -0x24(%ebp)
  401586:	51                   	push   %ecx
  401587:	ff d6                	call   *%esi
  401589:	8b 45 d8             	mov    -0x28(%ebp),%eax
  40158c:	8b 0d 24 92 42 00    	mov    0x429224,%ecx
  401592:	3b cb                	cmp    %ebx,%ecx
  401594:	0f 84 41 15 00 00    	je     0x402adb
  40159a:	50                   	push   %eax
  40159b:	51                   	push   %ecx
  40159c:	ff d6                	call   *%esi
  40159e:	e9 38 15 00 00       	jmp    0x402adb
  4015a3:	6a f0                	push   $0xfffffff0
  4015a5:	e8 a9 16 00 00       	call   0x402c53
  4015aa:	ff 75 dc             	pushl  -0x24(%ebp)
  4015ad:	50                   	push   %eax
  4015ae:	ff 15 90 80 40 00    	call   *0x408090
  4015b4:	85 c0                	test   %eax,%eax
  4015b6:	0f 85 1f 15 00 00    	jne    0x402adb
  4015bc:	e9 e0 12 00 00       	jmp    0x4028a1
  4015c1:	6a f0                	push   $0xfffffff0
  4015c3:	e8 8b 16 00 00       	call   0x402c53
  4015c8:	50                   	push   %eax
  4015c9:	89 45 08             	mov    %eax,0x8(%ebp)
  4015cc:	e8 a0 46 00 00       	call   0x405c71
  4015d1:	8b f0                	mov    %eax,%esi
  4015d3:	3b f3                	cmp    %ebx,%esi
  4015d5:	74 5a                	je     0x401631
  4015d7:	6a 5c                	push   $0x5c
  4015d9:	56                   	push   %esi
  4015da:	e8 14 46 00 00       	call   0x405bf3
  4015df:	8b f0                	mov    %eax,%esi
  4015e1:	66 8b 3e             	mov    (%esi),%di
  4015e4:	66 89 1e             	mov    %bx,(%esi)
  4015e7:	66 3b fb             	cmp    %bx,%di
  4015ea:	75 18                	jne    0x401604
  4015ec:	39 5d e0             	cmp    %ebx,-0x20(%ebp)
  4015ef:	74 13                	je     0x401604
  4015f1:	e8 e4 42 00 00       	call   0x4058da
  4015f6:	85 c0                	test   %eax,%eax
  4015f8:	74 0a                	je     0x401604
  4015fa:	ff 75 08             	pushl  0x8(%ebp)
  4015fd:	e8 3e 42 00 00       	call   0x405840
  401602:	eb 08                	jmp    0x40160c
  401604:	ff 75 08             	pushl  0x8(%ebp)
  401607:	e8 b1 42 00 00       	call   0x4058bd
  40160c:	3b c3                	cmp    %ebx,%eax
  40160e:	74 17                	je     0x401627
  401610:	3d b7 00 00 00       	cmp    $0xb7,%eax
  401615:	75 0d                	jne    0x401624
  401617:	ff 75 08             	pushl  0x8(%ebp)
  40161a:	ff 15 74 80 40 00    	call   *0x408074
  401620:	a8 10                	test   $0x10,%al
  401622:	75 03                	jne    0x401627
  401624:	ff 45 fc             	incl   -0x4(%ebp)
  401627:	66 89 3e             	mov    %di,(%esi)
  40162a:	46                   	inc    %esi
  40162b:	46                   	inc    %esi
  40162c:	66 3b fb             	cmp    %bx,%di
  40162f:	75 a6                	jne    0x4015d7
  401631:	39 5d dc             	cmp    %ebx,-0x24(%ebp)
  401634:	74 2d                	je     0x401663
  401636:	6a e6                	push   $0xffffffe6
  401638:	e8 e6 fd ff ff       	call   0x401423
  40163d:	ff 75 08             	pushl  0x8(%ebp)
  401640:	68 00 60 43 00       	push   $0x436000
  401645:	e8 c8 4b 00 00       	call   0x406212
  40164a:	ff 75 08             	pushl  0x8(%ebp)
  40164d:	ff 15 70 80 40 00    	call   *0x408070
  401653:	85 c0                	test   %eax,%eax
  401655:	0f 85 80 14 00 00    	jne    0x402adb
  40165b:	ff 45 fc             	incl   -0x4(%ebp)
  40165e:	e9 78 14 00 00       	jmp    0x402adb
  401663:	6a f5                	push   $0xfffffff5
  401665:	e9 e1 0b 00 00       	jmp    0x40224b
  40166a:	53                   	push   %ebx
  40166b:	e8 e3 15 00 00       	call   0x402c53
  401670:	50                   	push   %eax
  401671:	e8 df 4e 00 00       	call   0x406555
  401676:	e9 83 06 00 00       	jmp    0x401cfe
  40167b:	6a d0                	push   $0xffffffd0
  40167d:	e8 d1 15 00 00       	call   0x402c53
  401682:	6a df                	push   $0xffffffdf
  401684:	8b f0                	mov    %eax,%esi
  401686:	e8 c8 15 00 00       	call   0x402c53
  40168b:	6a 13                	push   $0x13
  40168d:	8b f8                	mov    %eax,%edi
  40168f:	e8 bf 15 00 00       	call   0x402c53
  401694:	57                   	push   %edi
  401695:	56                   	push   %esi
  401696:	ff 15 8c 80 40 00    	call   *0x40808c
  40169c:	85 c0                	test   %eax,%eax
  40169e:	74 07                	je     0x4016a7
  4016a0:	6a e3                	push   $0xffffffe3
  4016a2:	e9 a4 0b 00 00       	jmp    0x40224b
  4016a7:	39 5d e0             	cmp    %ebx,-0x20(%ebp)
  4016aa:	0f 84 f1 11 00 00    	je     0x4028a1
  4016b0:	56                   	push   %esi
  4016b1:	e8 9f 4e 00 00       	call   0x406555
  4016b6:	85 c0                	test   %eax,%eax
  4016b8:	0f 84 e3 11 00 00    	je     0x4028a1
  4016be:	57                   	push   %edi
  4016bf:	56                   	push   %esi
  4016c0:	e8 ee 49 00 00       	call   0x4060b3
  4016c5:	6a e4                	push   $0xffffffe4
  4016c7:	e9 7f 0b 00 00       	jmp    0x40224b
  4016cc:	53                   	push   %ebx
  4016cd:	e8 81 15 00 00       	call   0x402c53
  4016d2:	8b 7d f4             	mov    -0xc(%ebp),%edi
  4016d5:	8b f0                	mov    %eax,%esi
  4016d7:	8d 45 08             	lea    0x8(%ebp),%eax
  4016da:	50                   	push   %eax
  4016db:	57                   	push   %edi
  4016dc:	68 00 04 00 00       	push   $0x400
  4016e1:	56                   	push   %esi
  4016e2:	ff 15 78 80 40 00    	call   *0x408078
  4016e8:	85 c0                	test   %eax,%eax
  4016ea:	74 24                	je     0x401710
  4016ec:	8b 45 08             	mov    0x8(%ebp),%eax
  4016ef:	3b c6                	cmp    %esi,%eax
  4016f1:	76 27                	jbe    0x40171a
  4016f3:	66 39 18             	cmp    %bx,(%eax)
  4016f6:	74 22                	je     0x40171a
  4016f8:	56                   	push   %esi
  4016f9:	e8 57 4e 00 00       	call   0x406555
  4016fe:	3b c3                	cmp    %ebx,%eax
  401700:	74 0e                	je     0x401710
  401702:	83 c0 2c             	add    $0x2c,%eax
  401705:	50                   	push   %eax
  401706:	ff 75 08             	pushl  0x8(%ebp)
  401709:	e8 04 4b 00 00       	call   0x406212
  40170e:	eb 0a                	jmp    0x40171a
  401710:	c7 45 fc 01 00 00 00 	movl   $0x1,-0x4(%ebp)
  401717:	66 89 1f             	mov    %bx,(%edi)
  40171a:	39 5d e0             	cmp    %ebx,-0x20(%ebp)
  40171d:	0f 85 b8 13 00 00    	jne    0x402adb
  401723:	68 00 04 00 00       	push   $0x400
  401728:	57                   	push   %edi
  401729:	57                   	push   %edi
  40172a:	ff 15 10 81 40 00    	call   *0x408110
  401730:	e9 a6 13 00 00       	jmp    0x402adb
  401735:	6a ff                	push   $0xffffffff
  401737:	e8 17 15 00 00       	call   0x402c53
  40173c:	8d 4d 08             	lea    0x8(%ebp),%ecx
  40173f:	51                   	push   %ecx
  401740:	56                   	push   %esi
  401741:	68 00 04 00 00       	push   $0x400
  401746:	53                   	push   %ebx
  401747:	50                   	push   %eax
  401748:	53                   	push   %ebx
  401749:	ff 15 14 81 40 00    	call   *0x408114
  40174f:	85 c0                	test   %eax,%eax
  401751:	0f 85 84 13 00 00    	jne    0x402adb
  401757:	e9 13 11 00 00       	jmp    0x40286f
  40175c:	6a ef                	push   $0xffffffef
  40175e:	e8 f0 14 00 00       	call   0x402c53
  401763:	50                   	push   %eax
  401764:	56                   	push   %esi
  401765:	e8 ac 46 00 00       	call   0x405e16
  40176a:	e9 45 fe ff ff       	jmp    0x4015b4
  40176f:	6a 31                	push   $0x31
  401771:	e8 dd 14 00 00       	call   0x402c53
  401776:	89 45 f8             	mov    %eax,-0x8(%ebp)
  401779:	8b 45 d8             	mov    -0x28(%ebp),%eax
  40177c:	ff 75 f8             	pushl  -0x8(%ebp)
  40177f:	83 e0 07             	and    $0x7,%eax
  401782:	89 45 08             	mov    %eax,0x8(%ebp)
  401785:	e8 b3 44 00 00       	call   0x405c3d
  40178a:	ff 75 f8             	pushl  -0x8(%ebp)
  40178d:	be d8 a5 40 00       	mov    $0x40a5d8,%esi
  401792:	85 c0                	test   %eax,%eax
  401794:	74 08                	je     0x40179e
  401796:	56                   	push   %esi
  401797:	e8 76 4a 00 00       	call   0x406212
  40179c:	eb 17                	jmp    0x4017b5
  40179e:	68 00 60 43 00       	push   $0x436000
  4017a3:	56                   	push   %esi
  4017a4:	e8 69 4a 00 00       	call   0x406212
  4017a9:	50                   	push   %eax
  4017aa:	e8 17 44 00 00       	call   0x405bc6
  4017af:	50                   	push   %eax
  4017b0:	e8 79 4a 00 00       	call   0x40622e
  4017b5:	56                   	push   %esi
  4017b6:	e8 eb 4c 00 00       	call   0x4064a6
  4017bb:	83 7d 08 03          	cmpl   $0x3,0x8(%ebp)
  4017bf:	7c 31                	jl     0x4017f2
  4017c1:	56                   	push   %esi
  4017c2:	e8 8e 4d 00 00       	call   0x406555
  4017c7:	33 c9                	xor    %ecx,%ecx
  4017c9:	3b c3                	cmp    %ebx,%eax
  4017cb:	74 10                	je     0x4017dd
  4017cd:	8d 4d e4             	lea    -0x1c(%ebp),%ecx
  4017d0:	83 c0 14             	add    $0x14,%eax
  4017d3:	51                   	push   %ecx
  4017d4:	50                   	push   %eax
  4017d5:	ff 15 c0 80 40 00    	call   *0x4080c0
  4017db:	8b c8                	mov    %eax,%ecx
  4017dd:	8b 45 08             	mov    0x8(%ebp),%eax
  4017e0:	83 c0 fd             	add    $0xfffffffd,%eax
  4017e3:	0d 00 00 00 80       	or     $0x80000000,%eax
  4017e8:	23 c1                	and    %ecx,%eax
  4017ea:	f7 d8                	neg    %eax
  4017ec:	1b c0                	sbb    %eax,%eax
  4017ee:	40                   	inc    %eax
  4017ef:	89 45 08             	mov    %eax,0x8(%ebp)
  4017f2:	39 5d 08             	cmp    %ebx,0x8(%ebp)
  4017f5:	75 06                	jne    0x4017fd
  4017f7:	56                   	push   %esi
  4017f8:	e8 c5 45 00 00       	call   0x405dc2
  4017fd:	33 c0                	xor    %eax,%eax
  4017ff:	83 7d 08 01          	cmpl   $0x1,0x8(%ebp)
  401803:	0f 95 c0             	setne  %al
  401806:	40                   	inc    %eax
  401807:	50                   	push   %eax
  401808:	68 00 00 00 40       	push   $0x40000000
  40180d:	56                   	push   %esi
  40180e:	e8 d4 45 00 00       	call   0x405de7
  401813:	83 f8 ff             	cmp    $0xffffffff,%eax
  401816:	89 45 d0             	mov    %eax,-0x30(%ebp)
  401819:	75 72                	jne    0x40188d
  40181b:	39 5d 08             	cmp    %ebx,0x8(%ebp)
  40181e:	75 4f                	jne    0x40186f
  401820:	57                   	push   %edi
  401821:	68 d8 b5 40 00       	push   $0x40b5d8
  401826:	e8 e7 49 00 00       	call   0x406212
  40182b:	56                   	push   %esi
  40182c:	57                   	push   %edi
  40182d:	e8 e0 49 00 00       	call   0x406212
  401832:	ff 75 ec             	pushl  -0x14(%ebp)
  401835:	68 d8 ad 40 00       	push   $0x40add8
  40183a:	e8 f5 49 00 00       	call   0x406234
  40183f:	68 d8 b5 40 00       	push   $0x40b5d8
  401844:	57                   	push   %edi
  401845:	e8 c8 49 00 00       	call   0x406212
  40184a:	8b 45 d8             	mov    -0x28(%ebp),%eax
  40184d:	c1 f8 03             	sar    $0x3,%eax
  401850:	50                   	push   %eax
  401851:	68 d8 ad 40 00       	push   $0x40add8
  401856:	e8 fc 40 00 00       	call   0x405957
  40185b:	83 e8 04             	sub    $0x4,%eax
  40185e:	0f 84 57 ff ff ff    	je     0x4017bb
  401864:	48                   	dec    %eax
  401865:	74 1b                	je     0x401882
  401867:	56                   	push   %esi
  401868:	6a fa                	push   $0xfffffffa
  40186a:	e9 24 fc ff ff       	jmp    0x401493
  40186f:	ff 75 f8             	pushl  -0x8(%ebp)
  401872:	6a e2                	push   $0xffffffe2
  401874:	e8 f8 3a 00 00       	call   0x405371
  401879:	83 7d 08 02          	cmpl   $0x2,0x8(%ebp)
  40187d:	e9 34 fd ff ff       	jmp    0x4015b6
  401882:	ff 05 c8 a2 42 00    	incl   0x42a2c8
  401888:	e9 57 12 00 00       	jmp    0x402ae4
  40188d:	ff 75 f8             	pushl  -0x8(%ebp)
  401890:	6a ea                	push   $0xffffffea
  401892:	e8 da 3a 00 00       	call   0x405371
  401897:	ff 05 f4 a2 42 00    	incl   0x42a2f4
  40189d:	53                   	push   %ebx
  40189e:	53                   	push   %ebx
  40189f:	ff 75 d0             	pushl  -0x30(%ebp)
  4018a2:	ff 75 e0             	pushl  -0x20(%ebp)
  4018a5:	e8 d1 18 00 00       	call   0x40317b
  4018aa:	ff 0d f4 a2 42 00    	decl   0x42a2f4
  4018b0:	83 7d e4 ff          	cmpl   $0xffffffff,-0x1c(%ebp)
  4018b4:	8b f8                	mov    %eax,%edi
  4018b6:	75 06                	jne    0x4018be
  4018b8:	83 7d e8 ff          	cmpl   $0xffffffff,-0x18(%ebp)
  4018bc:	74 12                	je     0x4018d0
  4018be:	8d 45 e4             	lea    -0x1c(%ebp),%eax
  4018c1:	50                   	push   %eax
  4018c2:	8d 45 e4             	lea    -0x1c(%ebp),%eax
  4018c5:	53                   	push   %ebx
  4018c6:	50                   	push   %eax
  4018c7:	ff 75 d0             	pushl  -0x30(%ebp)
  4018ca:	ff 15 1c 81 40 00    	call   *0x40811c
  4018d0:	ff 75 d0             	pushl  -0x30(%ebp)
  4018d3:	ff 15 20 81 40 00    	call   *0x408120
  4018d9:	3b fb                	cmp    %ebx,%edi
  4018db:	0f 8d fa 11 00 00    	jge    0x402adb
  4018e1:	83 ff fe             	cmp    $0xfffffffe,%edi
  4018e4:	75 13                	jne    0x4018f9
  4018e6:	6a e9                	push   $0xffffffe9
  4018e8:	56                   	push   %esi
  4018e9:	e8 46 49 00 00       	call   0x406234
  4018ee:	ff 75 f8             	pushl  -0x8(%ebp)
  4018f1:	56                   	push   %esi
  4018f2:	e8 37 49 00 00       	call   0x40622e
  4018f7:	eb 08                	jmp    0x401901
  4018f9:	6a ee                	push   $0xffffffee
  4018fb:	56                   	push   %esi
  4018fc:	e8 33 49 00 00       	call   0x406234
  401901:	68 10 00 20 00       	push   $0x200010
  401906:	56                   	push   %esi
  401907:	e9 e6 09 00 00       	jmp    0x4022f2
  40190c:	53                   	push   %ebx
  40190d:	eb 34                	jmp    0x401943
  40190f:	6a 31                	push   $0x31
  401911:	e8 3d 13 00 00       	call   0x402c53
  401916:	ff 75 d8             	pushl  -0x28(%ebp)
  401919:	50                   	push   %eax
  40191a:	e8 38 40 00 00       	call   0x405957
  40191f:	3b c3                	cmp    %ebx,%eax
  401921:	0f 84 7a 0f 00 00    	je     0x4028a1
  401927:	3b 45 e0             	cmp    -0x20(%ebp),%eax
  40192a:	0f 84 6a 01 00 00    	je     0x401a9a
  401930:	3b 45 e8             	cmp    -0x18(%ebp),%eax
  401933:	0f 85 a2 11 00 00    	jne    0x402adb
  401939:	8b 45 ec             	mov    -0x14(%ebp),%eax
  40193c:	e9 a5 11 00 00       	jmp    0x402ae6
  401941:	6a f0                	push   $0xfffffff0
  401943:	e8 0b 13 00 00       	call   0x402c53
  401948:	ff 75 dc             	pushl  -0x24(%ebp)
  40194b:	50                   	push   %eax
  40194c:	e8 b2 40 00 00       	call   0x405a03
  401951:	e9 85 11 00 00       	jmp    0x402adb
  401956:	6a 01                	push   $0x1
  401958:	e8 f6 12 00 00       	call   0x402c53
  40195d:	50                   	push   %eax
  40195e:	e8 c5 48 00 00       	call   0x406228
  401963:	e9 40 0c 00 00       	jmp    0x4025a8
  401968:	6a 02                	push   $0x2
  40196a:	e8 c2 12 00 00       	call   0x402c31
  40196f:	6a 03                	push   $0x3
  401971:	89 45 ac             	mov    %eax,-0x54(%ebp)
  401974:	89 55 b0             	mov    %edx,-0x50(%ebp)
  401977:	e8 b5 12 00 00       	call   0x402c31
  40197c:	59                   	pop    %ecx
  40197d:	8b f8                	mov    %eax,%edi
  40197f:	8b 45 ac             	mov    -0x54(%ebp),%eax
  401982:	59                   	pop    %ecx
  401983:	6a 01                	push   $0x1
  401985:	89 7d cc             	mov    %edi,-0x34(%ebp)
  401988:	89 55 d0             	mov    %edx,-0x30(%ebp)
  40198b:	89 45 08             	mov    %eax,0x8(%ebp)
  40198e:	e8 c0 12 00 00       	call   0x402c53
  401993:	50                   	push   %eax
  401994:	89 45 c8             	mov    %eax,-0x38(%ebp)
  401997:	e8 8c 48 00 00       	call   0x406228
  40199c:	39 5d b0             	cmp    %ebx,-0x50(%ebp)
  40199f:	66 89 1e             	mov    %bx,(%esi)
  4019a2:	75 03                	jne    0x4019a7
  4019a4:	89 45 08             	mov    %eax,0x8(%ebp)
  4019a7:	39 5d 08             	cmp    %ebx,0x8(%ebp)
  4019aa:	0f 84 2b 11 00 00    	je     0x402adb
  4019b0:	8b 4d cc             	mov    -0x34(%ebp),%ecx
  4019b3:	3b cb                	cmp    %ebx,%ecx
  4019b5:	7d 0b                	jge    0x4019c2
  4019b7:	8d 3c 08             	lea    (%eax,%ecx,1),%edi
  4019ba:	3b fb                	cmp    %ebx,%edi
  4019bc:	0f 8c 19 11 00 00    	jl     0x402adb
  4019c2:	3b f8                	cmp    %eax,%edi
  4019c4:	7e 02                	jle    0x4019c8
  4019c6:	8b f8                	mov    %eax,%edi
  4019c8:	8b 45 c8             	mov    -0x38(%ebp),%eax
  4019cb:	8d 04 78             	lea    (%eax,%edi,2),%eax
  4019ce:	50                   	push   %eax
  4019cf:	56                   	push   %esi
  4019d0:	e8 3d 48 00 00       	call   0x406212
  4019d5:	39 5d 08             	cmp    %ebx,0x8(%ebp)
  4019d8:	7d 0e                	jge    0x4019e8
  4019da:	56                   	push   %esi
  4019db:	e8 48 48 00 00       	call   0x406228
  4019e0:	01 45 08             	add    %eax,0x8(%ebp)
  4019e3:	79 03                	jns    0x4019e8
  4019e5:	89 5d 08             	mov    %ebx,0x8(%ebp)
  4019e8:	8b 45 08             	mov    0x8(%ebp),%eax
  4019eb:	3d 00 04 00 00       	cmp    $0x400,%eax
  4019f0:	0f 8d e5 10 00 00    	jge    0x402adb
  4019f6:	66 89 1c 46          	mov    %bx,(%esi,%eax,2)
  4019fa:	e9 dc 10 00 00       	jmp    0x402adb
  4019ff:	6a 20                	push   $0x20
  401a01:	e8 4d 12 00 00       	call   0x402c53
  401a06:	6a 31                	push   $0x31
  401a08:	8b f0                	mov    %eax,%esi
  401a0a:	e8 44 12 00 00       	call   0x402c53
  401a0f:	39 5d e8             	cmp    %ebx,-0x18(%ebp)
  401a12:	50                   	push   %eax
  401a13:	56                   	push   %esi
  401a14:	75 12                	jne    0x401a28
  401a16:	ff 15 18 81 40 00    	call   *0x408118
  401a1c:	85 c0                	test   %eax,%eax
  401a1e:	75 7a                	jne    0x401a9a
  401a20:	8b 45 e0             	mov    -0x20(%ebp),%eax
  401a23:	e9 be 10 00 00       	jmp    0x402ae6
  401a28:	ff 15 28 81 40 00    	call   *0x408128
  401a2e:	eb ec                	jmp    0x401a1c
  401a30:	33 ff                	xor    %edi,%edi
  401a32:	47                   	inc    %edi
  401a33:	57                   	push   %edi
  401a34:	e8 1a 12 00 00       	call   0x402c53
  401a39:	68 00 04 00 00       	push   $0x400
  401a3e:	56                   	push   %esi
  401a3f:	50                   	push   %eax
  401a40:	89 45 08             	mov    %eax,0x8(%ebp)
  401a43:	ff 15 24 81 40 00    	call   *0x408124
  401a49:	85 c0                	test   %eax,%eax
  401a4b:	74 13                	je     0x401a60
  401a4d:	39 5d e0             	cmp    %ebx,-0x20(%ebp)
  401a50:	74 14                	je     0x401a66
  401a52:	56                   	push   %esi
  401a53:	ff 75 08             	pushl  0x8(%ebp)
  401a56:	ff 15 28 81 40 00    	call   *0x408128
  401a5c:	85 c0                	test   %eax,%eax
  401a5e:	75 06                	jne    0x401a66
  401a60:	89 7d fc             	mov    %edi,-0x4(%ebp)
  401a63:	66 89 1e             	mov    %bx,(%esi)
  401a66:	66 89 9e fe 07 00 00 	mov    %bx,0x7fe(%esi)
  401a6d:	e9 69 10 00 00       	jmp    0x402adb
  401a72:	53                   	push   %ebx
  401a73:	e8 b9 11 00 00       	call   0x402c31
  401a78:	6a 01                	push   $0x1
  401a7a:	8b f0                	mov    %eax,%esi
  401a7c:	89 55 b0             	mov    %edx,-0x50(%ebp)
  401a7f:	e8 ad 11 00 00       	call   0x402c31
  401a84:	39 5d ec             	cmp    %ebx,-0x14(%ebp)
  401a87:	59                   	pop    %ecx
  401a88:	59                   	pop    %ecx
  401a89:	89 55 b0             	mov    %edx,-0x50(%ebp)
  401a8c:	75 08                	jne    0x401a96
  401a8e:	3b f0                	cmp    %eax,%esi
  401a90:	7c 08                	jl     0x401a9a
  401a92:	7e 8c                	jle    0x401a20
  401a94:	eb 12                	jmp    0x401aa8
  401a96:	3b f0                	cmp    %eax,%esi
  401a98:	73 08                	jae    0x401aa2
  401a9a:	8b 45 e4             	mov    -0x1c(%ebp),%eax
  401a9d:	e9 44 10 00 00       	jmp    0x402ae6
  401aa2:	0f 86 78 ff ff ff    	jbe    0x401a20
  401aa8:	8b 45 e8             	mov    -0x18(%ebp),%eax
  401aab:	e9 36 10 00 00       	jmp    0x402ae6
  401ab0:	6a 01                	push   $0x1
  401ab2:	e8 7a 11 00 00       	call   0x402c31
  401ab7:	8b f8                	mov    %eax,%edi
  401ab9:	6a 02                	push   $0x2
  401abb:	89 55 b0             	mov    %edx,-0x50(%ebp)
  401abe:	89 7d 08             	mov    %edi,0x8(%ebp)
  401ac1:	e8 6b 11 00 00       	call   0x402c31
  401ac6:	59                   	pop    %ecx
  401ac7:	89 55 b0             	mov    %edx,-0x50(%ebp)
  401aca:	59                   	pop    %ecx
  401acb:	8b c8                	mov    %eax,%ecx
  401acd:	8b 45 e4             	mov    -0x1c(%ebp),%eax
  401ad0:	83 f8 0c             	cmp    $0xc,%eax
  401ad3:	77 6f                	ja     0x401b44
  401ad5:	ff 24 85 fd 2b 40 00 	jmp    *0x402bfd(,%eax,4)
  401adc:	03 cf                	add    %edi,%ecx
  401ade:	eb 67                	jmp    0x401b47
  401ae0:	2b f9                	sub    %ecx,%edi
  401ae2:	eb 5c                	jmp    0x401b40
  401ae4:	0f af cf             	imul   %edi,%ecx
  401ae7:	eb 5e                	jmp    0x401b47
  401ae9:	3b cb                	cmp    %ebx,%ecx
  401aeb:	74 42                	je     0x401b2f
  401aed:	8b c7                	mov    %edi,%eax
  401aef:	99                   	cltd   
  401af0:	f7 f9                	idiv   %ecx
  401af2:	8b c8                	mov    %eax,%ecx
  401af4:	eb 51                	jmp    0x401b47
  401af6:	0b cf                	or     %edi,%ecx
  401af8:	eb 4d                	jmp    0x401b47
  401afa:	23 cf                	and    %edi,%ecx
  401afc:	eb 49                	jmp    0x401b47
  401afe:	33 cf                	xor    %edi,%ecx
  401b00:	eb 45                	jmp    0x401b47
  401b02:	33 c9                	xor    %ecx,%ecx
  401b04:	3b fb                	cmp    %ebx,%edi
  401b06:	0f 94 c1             	sete   %cl
  401b09:	eb 3c                	jmp    0x401b47
  401b0b:	3b fb                	cmp    %ebx,%edi
  401b0d:	75 0e                	jne    0x401b1d
  401b0f:	eb 08                	jmp    0x401b19
  401b11:	33 c9                	xor    %ecx,%ecx
  401b13:	eb 32                	jmp    0x401b47
  401b15:	3b fb                	cmp    %ebx,%edi
  401b17:	74 f8                	je     0x401b11
  401b19:	3b cb                	cmp    %ebx,%ecx
  401b1b:	74 f4                	je     0x401b11
  401b1d:	33 c9                	xor    %ecx,%ecx
  401b1f:	41                   	inc    %ecx
  401b20:	eb 25                	jmp    0x401b47
  401b22:	3b cb                	cmp    %ebx,%ecx
  401b24:	74 09                	je     0x401b2f
  401b26:	8b c7                	mov    %edi,%eax
  401b28:	99                   	cltd   
  401b29:	f7 f9                	idiv   %ecx
  401b2b:	8b ca                	mov    %edx,%ecx
  401b2d:	eb 18                	jmp    0x401b47
  401b2f:	33 c9                	xor    %ecx,%ecx
  401b31:	c7 45 fc 01 00 00 00 	movl   $0x1,-0x4(%ebp)
  401b38:	eb 0d                	jmp    0x401b47
  401b3a:	d3 e7                	shl    %cl,%edi
  401b3c:	eb 02                	jmp    0x401b40
  401b3e:	d3 ff                	sar    %cl,%edi
  401b40:	8b cf                	mov    %edi,%ecx
  401b42:	eb 03                	jmp    0x401b47
  401b44:	8b 4d 08             	mov    0x8(%ebp),%ecx
  401b47:	51                   	push   %ecx
  401b48:	e9 20 fa ff ff       	jmp    0x40156d
  401b4d:	6a 01                	push   $0x1
  401b4f:	e8 ff 10 00 00       	call   0x402c53
  401b54:	6a 02                	push   $0x2
  401b56:	8b f8                	mov    %eax,%edi
  401b58:	e8 d4 10 00 00       	call   0x402c31
  401b5d:	50                   	push   %eax
  401b5e:	57                   	push   %edi
  401b5f:	56                   	push   %esi
  401b60:	89 55 b0             	mov    %edx,-0x50(%ebp)
  401b63:	ff 15 e0 81 40 00    	call   *0x4081e0
  401b69:	83 c4 10             	add    $0x10,%esp
  401b6c:	e9 6a 0f 00 00       	jmp    0x402adb
  401b71:	8b 45 e0             	mov    -0x20(%ebp),%eax
  401b74:	8b 3d dc cd 40 00    	mov    0x40cddc,%edi
  401b7a:	3b c3                	cmp    %ebx,%eax
  401b7c:	74 44                	je     0x401bc2
  401b7e:	48                   	dec    %eax
  401b7f:	3b fb                	cmp    %ebx,%edi
  401b81:	0f 84 5d 07 00 00    	je     0x4022e4
  401b87:	8b 3f                	mov    (%edi),%edi
  401b89:	3b c3                	cmp    %ebx,%eax
  401b8b:	75 f1                	jne    0x401b7e
  401b8d:	3b fb                	cmp    %ebx,%edi
  401b8f:	0f 84 4f 07 00 00    	je     0x4022e4
  401b95:	83 c7 04             	add    $0x4,%edi
  401b98:	be d8 a5 40 00       	mov    $0x40a5d8,%esi
  401b9d:	57                   	push   %edi
  401b9e:	56                   	push   %esi
  401b9f:	e8 6e 46 00 00       	call   0x406212
  401ba4:	a1 dc cd 40 00       	mov    0x40cddc,%eax
  401ba9:	83 c0 04             	add    $0x4,%eax
  401bac:	50                   	push   %eax
  401bad:	57                   	push   %edi
  401bae:	e8 5f 46 00 00       	call   0x406212
  401bb3:	a1 dc cd 40 00       	mov    0x40cddc,%eax
  401bb8:	56                   	push   %esi
  401bb9:	83 c0 04             	add    $0x4,%eax
  401bbc:	50                   	push   %eax
  401bbd:	e9 35 0e 00 00       	jmp    0x4029f7
  401bc2:	39 5d dc             	cmp    %ebx,-0x24(%ebp)
  401bc5:	74 25                	je     0x401bec
  401bc7:	3b fb                	cmp    %ebx,%edi
  401bc9:	0f 84 d2 0c 00 00    	je     0x4028a1
  401bcf:	8d 47 04             	lea    0x4(%edi),%eax
  401bd2:	50                   	push   %eax
  401bd3:	56                   	push   %esi
  401bd4:	e8 39 46 00 00       	call   0x406212
  401bd9:	8b 07                	mov    (%edi),%eax
  401bdb:	57                   	push   %edi
  401bdc:	a3 dc cd 40 00       	mov    %eax,0x40cddc
  401be1:	ff 15 08 81 40 00    	call   *0x408108
  401be7:	e9 ef 0e 00 00       	jmp    0x402adb
  401bec:	68 04 08 00 00       	push   $0x804
  401bf1:	6a 40                	push   $0x40
  401bf3:	ff 15 0c 81 40 00    	call   *0x40810c
  401bf9:	ff 75 d8             	pushl  -0x28(%ebp)
  401bfc:	8b f0                	mov    %eax,%esi
  401bfe:	8d 46 04             	lea    0x4(%esi),%eax
  401c01:	50                   	push   %eax
  401c02:	e8 2d 46 00 00       	call   0x406234
  401c07:	a1 dc cd 40 00       	mov    0x40cddc,%eax
  401c0c:	89 06                	mov    %eax,(%esi)
  401c0e:	89 35 dc cd 40 00    	mov    %esi,0x40cddc
  401c14:	e9 c2 0e 00 00       	jmp    0x402adb
  401c19:	6a 03                	push   $0x3
  401c1b:	e8 11 10 00 00       	call   0x402c31
  401c20:	6a 04                	push   $0x4
  401c22:	89 55 b0             	mov    %edx,-0x50(%ebp)
  401c25:	89 45 f0             	mov    %eax,-0x10(%ebp)
  401c28:	e8 04 10 00 00       	call   0x402c31
  401c2d:	f6 45 ec 01          	testb  $0x1,-0x14(%ebp)
  401c31:	59                   	pop    %ecx
  401c32:	89 55 b0             	mov    %edx,-0x50(%ebp)
  401c35:	59                   	pop    %ecx
  401c36:	89 45 08             	mov    %eax,0x8(%ebp)
  401c39:	74 0a                	je     0x401c45
  401c3b:	6a 33                	push   $0x33
  401c3d:	e8 11 10 00 00       	call   0x402c53
  401c42:	89 45 f0             	mov    %eax,-0x10(%ebp)
  401c45:	f6 45 ec 02          	testb  $0x2,-0x14(%ebp)
  401c49:	74 0a                	je     0x401c55
  401c4b:	6a 44                	push   $0x44
  401c4d:	e8 01 10 00 00       	call   0x402c53
  401c52:	89 45 08             	mov    %eax,0x8(%ebp)
  401c55:	83 7d d4 21          	cmpl   $0x21,-0x2c(%ebp)
  401c59:	6a 01                	push   $0x1
  401c5b:	75 4c                	jne    0x401ca9
  401c5d:	e8 cf 0f 00 00       	call   0x402c31
  401c62:	6a 02                	push   $0x2
  401c64:	8b f8                	mov    %eax,%edi
  401c66:	89 55 b0             	mov    %edx,-0x50(%ebp)
  401c69:	e8 c3 0f 00 00       	call   0x402c31
  401c6e:	59                   	pop    %ecx
  401c6f:	89 55 b0             	mov    %edx,-0x50(%ebp)
  401c72:	59                   	pop    %ecx
  401c73:	8b 4d ec             	mov    -0x14(%ebp),%ecx
  401c76:	c1 f9 02             	sar    $0x2,%ecx
  401c79:	74 1e                	je     0x401c99
  401c7b:	8d 55 d0             	lea    -0x30(%ebp),%edx
  401c7e:	52                   	push   %edx
  401c7f:	51                   	push   %ecx
  401c80:	53                   	push   %ebx
  401c81:	ff 75 08             	pushl  0x8(%ebp)
  401c84:	ff 75 f0             	pushl  -0x10(%ebp)
  401c87:	50                   	push   %eax
  401c88:	57                   	push   %edi
  401c89:	ff 15 94 82 40 00    	call   *0x408294
  401c8f:	f7 d8                	neg    %eax
  401c91:	1b c0                	sbb    %eax,%eax
  401c93:	40                   	inc    %eax
  401c94:	89 45 fc             	mov    %eax,-0x4(%ebp)
  401c97:	eb 43                	jmp    0x401cdc
  401c99:	ff 75 08             	pushl  0x8(%ebp)
  401c9c:	ff 75 f0             	pushl  -0x10(%ebp)
  401c9f:	50                   	push   %eax
  401ca0:	57                   	push   %edi
  401ca1:	ff 15 20 82 40 00    	call   *0x408220
  401ca7:	eb 30                	jmp    0x401cd9
  401ca9:	e8 a5 0f 00 00       	call   0x402c53
  401cae:	6a 12                	push   $0x12
  401cb0:	8b f8                	mov    %eax,%edi
  401cb2:	e8 9c 0f 00 00       	call   0x402c53
  401cb7:	66 8b 08             	mov    (%eax),%cx
  401cba:	66 f7 d9             	neg    %cx
  401cbd:	1b c9                	sbb    %ecx,%ecx
  401cbf:	23 c8                	and    %eax,%ecx
  401cc1:	66 8b 07             	mov    (%edi),%ax
  401cc4:	66 f7 d8             	neg    %ax
  401cc7:	1b c0                	sbb    %eax,%eax
  401cc9:	51                   	push   %ecx
  401cca:	23 c7                	and    %edi,%eax
  401ccc:	50                   	push   %eax
  401ccd:	ff 75 08             	pushl  0x8(%ebp)
  401cd0:	ff 75 f0             	pushl  -0x10(%ebp)
  401cd3:	ff 15 78 82 40 00    	call   *0x408278
  401cd9:	89 45 d0             	mov    %eax,-0x30(%ebp)
  401cdc:	39 5d d8             	cmp    %ebx,-0x28(%ebp)
  401cdf:	0f 8c f6 0d 00 00    	jl     0x402adb
  401ce5:	ff 75 d0             	pushl  -0x30(%ebp)
  401ce8:	e9 80 f8 ff ff       	jmp    0x40156d
  401ced:	53                   	push   %ebx
  401cee:	e8 3e 0f 00 00       	call   0x402c31
  401cf3:	59                   	pop    %ecx
  401cf4:	89 55 b0             	mov    %edx,-0x50(%ebp)
  401cf7:	50                   	push   %eax
  401cf8:	ff 15 70 82 40 00    	call   *0x408270
  401cfe:	85 c0                	test   %eax,%eax
  401d00:	0f 84 1a fd ff ff    	je     0x401a20
  401d06:	8b 45 dc             	mov    -0x24(%ebp),%eax
  401d09:	e9 d8 0d 00 00       	jmp    0x402ae6
  401d0e:	6a 02                	push   $0x2
  401d10:	e8 1c 0f 00 00       	call   0x402c31
  401d15:	6a 01                	push   $0x1
  401d17:	8b f8                	mov    %eax,%edi
  401d19:	89 55 b0             	mov    %edx,-0x50(%ebp)
  401d1c:	e8 10 0f 00 00       	call   0x402c31
  401d21:	59                   	pop    %ecx
  401d22:	89 55 b0             	mov    %edx,-0x50(%ebp)
  401d25:	59                   	pop    %ecx
  401d26:	57                   	push   %edi
  401d27:	50                   	push   %eax
  401d28:	ff 15 6c 82 40 00    	call   *0x40826c
  401d2e:	e9 75 08 00 00       	jmp    0x4025a8
  401d33:	a1 88 a2 42 00       	mov    0x42a288,%eax
  401d38:	8b 4d dc             	mov    -0x24(%ebp),%ecx
  401d3b:	53                   	push   %ebx
  401d3c:	8d 34 08             	lea    (%eax,%ecx,1),%esi
  401d3f:	e8 ed 0e 00 00       	call   0x402c31
  401d44:	59                   	pop    %ecx
  401d45:	89 55 b0             	mov    %edx,-0x50(%ebp)
  401d48:	56                   	push   %esi
  401d49:	6a eb                	push   $0xffffffeb
  401d4b:	50                   	push   %eax
  401d4c:	ff 15 74 82 40 00    	call   *0x408274
  401d52:	e9 84 0d 00 00       	jmp    0x402adb
  401d57:	ff 75 dc             	pushl  -0x24(%ebp)
  401d5a:	ff 75 f8             	pushl  -0x8(%ebp)
  401d5d:	ff 15 6c 82 40 00    	call   *0x40826c
  401d63:	8b f0                	mov    %eax,%esi
  401d65:	8d 45 a4             	lea    -0x5c(%ebp),%eax
  401d68:	50                   	push   %eax
  401d69:	56                   	push   %esi
  401d6a:	ff 15 2c 82 40 00    	call   *0x40822c
  401d70:	8b 45 b0             	mov    -0x50(%ebp),%eax
  401d73:	6a 10                	push   $0x10
  401d75:	0f af 45 e0          	imul   -0x20(%ebp),%eax
  401d79:	50                   	push   %eax
  401d7a:	8b 45 ac             	mov    -0x54(%ebp),%eax
  401d7d:	0f af 45 e0          	imul   -0x20(%ebp),%eax
  401d81:	50                   	push   %eax
  401d82:	53                   	push   %ebx
  401d83:	53                   	push   %ebx
  401d84:	e8 ca 0e 00 00       	call   0x402c53
  401d89:	50                   	push   %eax
  401d8a:	53                   	push   %ebx
  401d8b:	ff 15 58 82 40 00    	call   *0x408258
  401d91:	50                   	push   %eax
  401d92:	53                   	push   %ebx
  401d93:	68 72 01 00 00       	push   $0x172
  401d98:	56                   	push   %esi
  401d99:	ff 15 20 82 40 00    	call   *0x408220
  401d9f:	3b c3                	cmp    %ebx,%eax
  401da1:	0f 84 34 0d 00 00    	je     0x402adb
  401da7:	50                   	push   %eax
  401da8:	ff 15 5c 80 40 00    	call   *0x40805c
  401dae:	e9 28 0d 00 00       	jmp    0x402adb
  401db3:	ff 75 f8             	pushl  -0x8(%ebp)
  401db6:	ff 15 10 82 40 00    	call   *0x408210
  401dbc:	6a 02                	push   $0x2
  401dbe:	8b f8                	mov    %eax,%edi
  401dc0:	e8 6c 0e 00 00       	call   0x402c31
  401dc5:	59                   	pop    %ecx
  401dc6:	8b d8                	mov    %eax,%ebx
  401dc8:	6a 48                	push   $0x48
  401dca:	6a 5a                	push   $0x5a
  401dcc:	57                   	push   %edi
  401dcd:	89 55 b0             	mov    %edx,-0x50(%ebp)
  401dd0:	ff 15 60 80 40 00    	call   *0x408060
  401dd6:	50                   	push   %eax
  401dd7:	53                   	push   %ebx
  401dd8:	ff 15 54 81 40 00    	call   *0x408154
  401dde:	57                   	push   %edi
  401ddf:	ff 75 f8             	pushl  -0x8(%ebp)
  401de2:	f7 d8                	neg    %eax
  401de4:	a3 e0 cd 40 00       	mov    %eax,0x40cde0
  401de9:	ff 15 14 82 40 00    	call   *0x408214
  401def:	6a 03                	push   $0x3
  401df1:	e8 3b 0e 00 00       	call   0x402c31
  401df6:	a3 f0 cd 40 00       	mov    %eax,0x40cdf0
  401dfb:	8a 45 e8             	mov    -0x18(%ebp),%al
  401dfe:	59                   	pop    %ecx
  401dff:	89 55 b0             	mov    %edx,-0x50(%ebp)
  401e02:	ff 75 dc             	pushl  -0x24(%ebp)
  401e05:	8a c8                	mov    %al,%cl
  401e07:	80 e1 01             	and    $0x1,%cl
  401e0a:	c6 05 f7 cd 40 00 01 	movb   $0x1,0x40cdf7
  401e11:	88 0d f4 cd 40 00    	mov    %cl,0x40cdf4
  401e17:	8a c8                	mov    %al,%cl
  401e19:	80 e1 02             	and    $0x2,%cl
  401e1c:	24 04                	and    $0x4,%al
  401e1e:	68 fc cd 40 00       	push   $0x40cdfc
  401e23:	88 0d f5 cd 40 00    	mov    %cl,0x40cdf5
  401e29:	a2 f6 cd 40 00       	mov    %al,0x40cdf6
  401e2e:	e8 01 44 00 00       	call   0x406234
  401e33:	68 e0 cd 40 00       	push   $0x40cde0
  401e38:	ff 15 54 80 40 00    	call   *0x408054
  401e3e:	e9 65 07 00 00       	jmp    0x4025a8
  401e43:	53                   	push   %ebx
  401e44:	e8 e8 0d 00 00       	call   0x402c31
  401e49:	6a 01                	push   $0x1
  401e4b:	8b f0                	mov    %eax,%esi
  401e4d:	89 55 b0             	mov    %edx,-0x50(%ebp)
  401e50:	e8 dc 0d 00 00       	call   0x402c31
  401e55:	39 5d e4             	cmp    %ebx,-0x1c(%ebp)
  401e58:	59                   	pop    %ecx
  401e59:	59                   	pop    %ecx
  401e5a:	89 55 b0             	mov    %edx,-0x50(%ebp)
  401e5d:	50                   	push   %eax
  401e5e:	56                   	push   %esi
  401e5f:	75 0b                	jne    0x401e6c
  401e61:	ff 15 68 82 40 00    	call   *0x408268
  401e67:	e9 6f 0c 00 00       	jmp    0x402adb
  401e6c:	ff 15 18 82 40 00    	call   *0x408218
  401e72:	e9 64 0c 00 00       	jmp    0x402adb
  401e77:	53                   	push   %ebx
  401e78:	e8 d6 0d 00 00       	call   0x402c53
  401e7d:	6a 31                	push   $0x31
  401e7f:	8b f0                	mov    %eax,%esi
  401e81:	e8 cd 0d 00 00       	call   0x402c53
  401e86:	6a 22                	push   $0x22
  401e88:	8b d8                	mov    %eax,%ebx
  401e8a:	e8 c4 0d 00 00       	call   0x402c53
  401e8f:	6a 15                	push   $0x15
  401e91:	8b f8                	mov    %eax,%edi
  401e93:	e8 bb 0d 00 00       	call   0x402c53
  401e98:	6a ec                	push   $0xffffffec
  401e9a:	e8 84 f5 ff ff       	call   0x401423
  401e9f:	66 8b 07             	mov    (%edi),%ax
  401ea2:	ff 75 e4             	pushl  -0x1c(%ebp)
  401ea5:	66 f7 d8             	neg    %ax
  401ea8:	1b c0                	sbb    %eax,%eax
  401eaa:	68 00 60 43 00       	push   $0x436000
  401eaf:	23 c7                	and    %edi,%eax
  401eb1:	50                   	push   %eax
  401eb2:	66 8b 06             	mov    (%esi),%ax
  401eb5:	66 f7 d8             	neg    %ax
  401eb8:	1b c0                	sbb    %eax,%eax
  401eba:	53                   	push   %ebx
  401ebb:	23 c6                	and    %esi,%eax
  401ebd:	50                   	push   %eax
  401ebe:	ff 75 f8             	pushl  -0x8(%ebp)
  401ec1:	ff 15 8c 81 40 00    	call   *0x40818c
  401ec7:	83 f8 21             	cmp    $0x21,%eax
  401eca:	0f 8d 0b 0c 00 00    	jge    0x402adb
  401ed0:	e9 cc 09 00 00       	jmp    0x4028a1
  401ed5:	53                   	push   %ebx
  401ed6:	e8 78 0d 00 00       	call   0x402c53
  401edb:	8b f0                	mov    %eax,%esi
  401edd:	56                   	push   %esi
  401ede:	6a eb                	push   $0xffffffeb
  401ee0:	e8 8c 34 00 00       	call   0x405371
  401ee5:	56                   	push   %esi
  401ee6:	e8 07 3a 00 00       	call   0x4058f2
  401eeb:	3b c3                	cmp    %ebx,%eax
  401eed:	89 45 08             	mov    %eax,0x8(%ebp)
  401ef0:	0f 84 ab 09 00 00    	je     0x4028a1
  401ef6:	39 5d e0             	cmp    %ebx,-0x20(%ebp)
  401ef9:	74 4f                	je     0x401f4a
  401efb:	8b 35 b8 80 40 00    	mov    0x4080b8,%esi
  401f01:	6a 64                	push   $0x64
  401f03:	50                   	push   %eax
  401f04:	ff d6                	call   *%esi
  401f06:	bf 02 01 00 00       	mov    $0x102,%edi
  401f0b:	eb 0e                	jmp    0x401f1b
  401f0d:	6a 0f                	push   $0xf
  401f0f:	e8 14 47 00 00       	call   0x406628
  401f14:	6a 64                	push   $0x64
  401f16:	ff 75 08             	pushl  0x8(%ebp)
  401f19:	ff d6                	call   *%esi
  401f1b:	3b c7                	cmp    %edi,%eax
  401f1d:	74 ee                	je     0x401f0d
  401f1f:	8d 45 c8             	lea    -0x38(%ebp),%eax
  401f22:	50                   	push   %eax
  401f23:	ff 75 08             	pushl  0x8(%ebp)
  401f26:	ff 15 38 81 40 00    	call   *0x408138
  401f2c:	39 5d dc             	cmp    %ebx,-0x24(%ebp)
  401f2f:	7c 0d                	jl     0x401f3e
  401f31:	ff 75 c8             	pushl  -0x38(%ebp)
  401f34:	ff 75 f4             	pushl  -0xc(%ebp)
  401f37:	e8 1d 42 00 00       	call   0x406159
  401f3c:	eb 0c                	jmp    0x401f4a
  401f3e:	39 5d c8             	cmp    %ebx,-0x38(%ebp)
  401f41:	74 07                	je     0x401f4a
  401f43:	c7 45 fc 01 00 00 00 	movl   $0x1,-0x4(%ebp)
  401f4a:	ff 75 08             	pushl  0x8(%ebp)
  401f4d:	ff 15 20 81 40 00    	call   *0x408120
  401f53:	e9 83 0b 00 00       	jmp    0x402adb
  401f58:	6a 02                	push   $0x2
  401f5a:	e8 f4 0c 00 00       	call   0x402c53
  401f5f:	50                   	push   %eax
  401f60:	e8 f0 45 00 00       	call   0x406555
  401f65:	8b f8                	mov    %eax,%edi
  401f67:	3b fb                	cmp    %ebx,%edi
  401f69:	74 13                	je     0x401f7e
  401f6b:	ff 77 14             	pushl  0x14(%edi)
  401f6e:	ff 75 f4             	pushl  -0xc(%ebp)
  401f71:	e8 e3 41 00 00       	call   0x406159
  401f76:	ff 77 18             	pushl  0x18(%edi)
  401f79:	e9 ef f5 ff ff       	jmp    0x40156d
  401f7e:	8b 45 f4             	mov    -0xc(%ebp),%eax
  401f81:	66 89 1e             	mov    %bx,(%esi)
  401f84:	66 89 18             	mov    %bx,(%eax)
  401f87:	e9 15 09 00 00       	jmp    0x4028a1
  401f8c:	6a ee                	push   $0xffffffee
  401f8e:	e8 c0 0c 00 00       	call   0x402c53
  401f93:	8d 4d b0             	lea    -0x50(%ebp),%ecx
  401f96:	89 45 d0             	mov    %eax,-0x30(%ebp)
  401f99:	51                   	push   %ecx
  401f9a:	50                   	push   %eax
  401f9b:	6a 08                	push   $0x8
  401f9d:	e8 4a 46 00 00       	call   0x4065ec
  401fa2:	ff d0                	call   *%eax
  401fa4:	8b f8                	mov    %eax,%edi
  401fa6:	8b 45 f4             	mov    -0xc(%ebp),%eax
  401fa9:	66 89 1e             	mov    %bx,(%esi)
  401fac:	3b fb                	cmp    %ebx,%edi
  401fae:	66 89 18             	mov    %bx,(%eax)
  401fb1:	c7 45 fc 01 00 00 00 	movl   $0x1,-0x4(%ebp)
  401fb8:	0f 84 1d 0b 00 00    	je     0x402adb
  401fbe:	57                   	push   %edi
  401fbf:	6a 40                	push   $0x40
  401fc1:	ff 15 0c 81 40 00    	call   *0x40810c
  401fc7:	3b c3                	cmp    %ebx,%eax
  401fc9:	89 45 08             	mov    %eax,0x8(%ebp)
  401fcc:	0f 84 09 0b 00 00    	je     0x402adb
  401fd2:	6a 09                	push   $0x9
  401fd4:	e8 13 46 00 00       	call   0x4065ec
  401fd9:	6a 0a                	push   $0xa
  401fdb:	89 45 c0             	mov    %eax,-0x40(%ebp)
  401fde:	e8 09 46 00 00       	call   0x4065ec
  401fe3:	ff 75 08             	pushl  0x8(%ebp)
  401fe6:	89 45 f0             	mov    %eax,-0x10(%ebp)
  401fe9:	57                   	push   %edi
  401fea:	53                   	push   %ebx
  401feb:	ff 75 d0             	pushl  -0x30(%ebp)
  401fee:	ff 55 c0             	call   *-0x40(%ebp)
  401ff1:	85 c0                	test   %eax,%eax
  401ff3:	74 34                	je     0x402029
  401ff5:	8d 45 b8             	lea    -0x48(%ebp),%eax
  401ff8:	50                   	push   %eax
  401ff9:	8d 45 c8             	lea    -0x38(%ebp),%eax
  401ffc:	50                   	push   %eax
  401ffd:	68 14 a0 40 00       	push   $0x40a014
  402002:	ff 75 08             	pushl  0x8(%ebp)
  402005:	ff 55 f0             	call   *-0x10(%ebp)
  402008:	85 c0                	test   %eax,%eax
  40200a:	74 1d                	je     0x402029
  40200c:	8b 45 c8             	mov    -0x38(%ebp),%eax
  40200f:	ff 70 08             	pushl  0x8(%eax)
  402012:	56                   	push   %esi
  402013:	e8 41 41 00 00       	call   0x406159
  402018:	8b 45 c8             	mov    -0x38(%ebp),%eax
  40201b:	ff 70 0c             	pushl  0xc(%eax)
  40201e:	ff 75 f4             	pushl  -0xc(%ebp)
  402021:	e8 33 41 00 00       	call   0x406159
  402026:	89 5d fc             	mov    %ebx,-0x4(%ebp)
  402029:	ff 75 08             	pushl  0x8(%ebp)
  40202c:	e9 b0 fb ff ff       	jmp    0x401be1
  402031:	39 1d f8 a2 42 00    	cmp    %ebx,0x42a2f8
  402037:	c7 45 fc 01 00 00 00 	movl   $0x1,-0x4(%ebp)
  40203e:	0f 8c b9 00 00 00    	jl     0x4020fd
  402044:	6a f0                	push   $0xfffffff0
  402046:	e8 08 0c 00 00       	call   0x402c53
  40204b:	6a 01                	push   $0x1
  40204d:	8b f0                	mov    %eax,%esi
  40204f:	e8 ff 0b 00 00       	call   0x402c53
  402054:	39 5d e8             	cmp    %ebx,-0x18(%ebp)
  402057:	89 45 c8             	mov    %eax,-0x38(%ebp)
  40205a:	74 0e                	je     0x40206a
  40205c:	56                   	push   %esi
  40205d:	ff 15 74 81 40 00    	call   *0x408174
  402063:	3b c3                	cmp    %ebx,%eax
  402065:	89 45 08             	mov    %eax,0x8(%ebp)
  402068:	75 11                	jne    0x40207b
  40206a:	6a 08                	push   $0x8
  40206c:	53                   	push   %ebx
  40206d:	56                   	push   %esi
  40206e:	ff 15 70 81 40 00    	call   *0x408170
  402074:	3b c3                	cmp    %ebx,%eax
  402076:	89 45 08             	mov    %eax,0x8(%ebp)
  402079:	74 7b                	je     0x4020f6
  40207b:	ff 75 c8             	pushl  -0x38(%ebp)
  40207e:	ff 75 08             	pushl  0x8(%ebp)
  402081:	e8 d5 45 00 00       	call   0x40665b
  402086:	8b f0                	mov    %eax,%esi
  402088:	3b f3                	cmp    %ebx,%esi
  40208a:	74 39                	je     0x4020c5
  40208c:	39 5d e0             	cmp    %ebx,-0x20(%ebp)
  40208f:	89 5d fc             	mov    %ebx,-0x4(%ebp)
  402092:	74 17                	je     0x4020ab
  402094:	ff 75 e0             	pushl  -0x20(%ebp)
  402097:	e8 87 f3 ff ff       	call   0x401423
  40209c:	ff d6                	call   *%esi
  40209e:	85 c0                	test   %eax,%eax
  4020a0:	74 2d                	je     0x4020cf
  4020a2:	c7 45 fc 01 00 00 00 	movl   $0x1,-0x4(%ebp)
  4020a9:	eb 24                	jmp    0x4020cf
  4020ab:	68 00 a0 40 00       	push   $0x40a000
  4020b0:	68 dc cd 40 00       	push   $0x40cddc
  4020b5:	57                   	push   %edi
  4020b6:	68 00 04 00 00       	push   $0x400
  4020bb:	ff 75 f8             	pushl  -0x8(%ebp)
  4020be:	ff d6                	call   *%esi
  4020c0:	83 c4 14             	add    $0x14,%esp
  4020c3:	eb 0a                	jmp    0x4020cf
  4020c5:	ff 75 c8             	pushl  -0x38(%ebp)
  4020c8:	6a f7                	push   $0xfffffff7
  4020ca:	e8 a2 32 00 00       	call   0x405371
  4020cf:	39 5d e4             	cmp    %ebx,-0x1c(%ebp)
  4020d2:	0f 85 03 0a 00 00    	jne    0x402adb
  4020d8:	ff 75 08             	pushl  0x8(%ebp)
  4020db:	e8 1b 19 00 00       	call   0x4039fb
  4020e0:	85 c0                	test   %eax,%eax
  4020e2:	0f 84 f3 09 00 00    	je     0x402adb
  4020e8:	ff 75 08             	pushl  0x8(%ebp)
  4020eb:	ff 15 6c 81 40 00    	call   *0x40816c
  4020f1:	e9 e5 09 00 00       	jmp    0x402adb
  4020f6:	6a f6                	push   $0xfffffff6
  4020f8:	e9 4e 01 00 00       	jmp    0x40224b
  4020fd:	6a e7                	push   $0xffffffe7
  4020ff:	e9 47 01 00 00       	jmp    0x40224b
  402104:	6a f0                	push   $0xfffffff0
  402106:	e8 48 0b 00 00       	call   0x402c53
  40210b:	6a df                	push   $0xffffffdf
  40210d:	89 45 b0             	mov    %eax,-0x50(%ebp)
  402110:	e8 3e 0b 00 00       	call   0x402c53
  402115:	6a 02                	push   $0x2
  402117:	89 45 c8             	mov    %eax,-0x38(%ebp)
  40211a:	e8 34 0b 00 00       	call   0x402c53
  40211f:	6a cd                	push   $0xffffffcd
  402121:	89 45 f8             	mov    %eax,-0x8(%ebp)
  402124:	e8 2a 0b 00 00       	call   0x402c53
  402129:	6a 45                	push   $0x45
  40212b:	89 45 b8             	mov    %eax,-0x48(%ebp)
  40212e:	e8 20 0b 00 00       	call   0x402c53
  402133:	ff 75 c8             	pushl  -0x38(%ebp)
  402136:	89 45 f4             	mov    %eax,-0xc(%ebp)
  402139:	8b 45 e8             	mov    -0x18(%ebp),%eax
  40213c:	8b c8                	mov    %eax,%ecx
  40213e:	8b f8                	mov    %eax,%edi
  402140:	8b f0                	mov    %eax,%esi
  402142:	81 e1 ff 0f 00 00    	and    $0xfff,%ecx
  402148:	c1 f8 10             	sar    $0x10,%eax
  40214b:	c1 fe 0c             	sar    $0xc,%esi
  40214e:	25 ff ff 00 00       	and    $0xffff,%eax
  402153:	89 4d bc             	mov    %ecx,-0x44(%ebp)
  402156:	81 e7 00 80 00 00    	and    $0x8000,%edi
  40215c:	83 e6 07             	and    $0x7,%esi
  40215f:	89 45 c0             	mov    %eax,-0x40(%ebp)
  402162:	e8 d6 3a 00 00       	call   0x405c3d
  402167:	85 c0                	test   %eax,%eax
  402169:	75 07                	jne    0x402172
  40216b:	6a 21                	push   $0x21
  40216d:	e8 e1 0a 00 00       	call   0x402c53
  402172:	8d 45 08             	lea    0x8(%ebp),%eax
  402175:	50                   	push   %eax
  402176:	68 d4 84 40 00       	push   $0x4084d4
  40217b:	6a 01                	push   $0x1
  40217d:	53                   	push   %ebx
  40217e:	68 e4 84 40 00       	push   $0x4084e4
  402183:	ff 15 ac 82 40 00    	call   *0x4082ac
  402189:	3b c3                	cmp    %ebx,%eax
  40218b:	0f 8c b1 00 00 00    	jl     0x402242
  402191:	8b 45 08             	mov    0x8(%ebp),%eax
  402194:	8d 55 d0             	lea    -0x30(%ebp),%edx
  402197:	52                   	push   %edx
  402198:	68 f4 84 40 00       	push   $0x4084f4
  40219d:	8b 08                	mov    (%eax),%ecx
  40219f:	50                   	push   %eax
  4021a0:	ff 11                	call   *(%ecx)
  4021a2:	3b c3                	cmp    %ebx,%eax
  4021a4:	89 45 f0             	mov    %eax,-0x10(%ebp)
  4021a7:	0f 8c 87 00 00 00    	jl     0x402234
  4021ad:	8b 45 08             	mov    0x8(%ebp),%eax
  4021b0:	ff 75 c8             	pushl  -0x38(%ebp)
  4021b3:	8b 08                	mov    (%eax),%ecx
  4021b5:	50                   	push   %eax
  4021b6:	ff 51 50             	call   *0x50(%ecx)
  4021b9:	3b fb                	cmp    %ebx,%edi
  4021bb:	89 45 f0             	mov    %eax,-0x10(%ebp)
  4021be:	75 0e                	jne    0x4021ce
  4021c0:	8b 45 08             	mov    0x8(%ebp),%eax
  4021c3:	68 00 60 43 00       	push   $0x436000
  4021c8:	50                   	push   %eax
  4021c9:	8b 08                	mov    (%eax),%ecx
  4021cb:	ff 51 24             	call   *0x24(%ecx)
  4021ce:	3b f3                	cmp    %ebx,%esi
  4021d0:	74 0a                	je     0x4021dc
  4021d2:	8b 45 08             	mov    0x8(%ebp),%eax
  4021d5:	56                   	push   %esi
  4021d6:	50                   	push   %eax
  4021d7:	8b 08                	mov    (%eax),%ecx
  4021d9:	ff 51 3c             	call   *0x3c(%ecx)
  4021dc:	8b 45 08             	mov    0x8(%ebp),%eax
  4021df:	ff 75 c0             	pushl  -0x40(%ebp)
  4021e2:	8b 08                	mov    (%eax),%ecx
  4021e4:	50                   	push   %eax
  4021e5:	ff 51 34             	call   *0x34(%ecx)
  4021e8:	8b 4d b8             	mov    -0x48(%ebp),%ecx
  4021eb:	66 39 19             	cmp    %bx,(%ecx)
  4021ee:	74 0d                	je     0x4021fd
  4021f0:	8b 45 08             	mov    0x8(%ebp),%eax
  4021f3:	ff 75 bc             	pushl  -0x44(%ebp)
  4021f6:	8b 10                	mov    (%eax),%edx
  4021f8:	51                   	push   %ecx
  4021f9:	50                   	push   %eax
  4021fa:	ff 52 44             	call   *0x44(%edx)
  4021fd:	8b 45 08             	mov    0x8(%ebp),%eax
  402200:	ff 75 f8             	pushl  -0x8(%ebp)
  402203:	8b 08                	mov    (%eax),%ecx
  402205:	50                   	push   %eax
  402206:	ff 51 2c             	call   *0x2c(%ecx)
  402209:	8b 45 08             	mov    0x8(%ebp),%eax
  40220c:	ff 75 f4             	pushl  -0xc(%ebp)
  40220f:	8b 08                	mov    (%eax),%ecx
  402211:	50                   	push   %eax
  402212:	ff 51 1c             	call   *0x1c(%ecx)
  402215:	39 5d f0             	cmp    %ebx,-0x10(%ebp)
  402218:	7c 11                	jl     0x40222b
  40221a:	8b 45 d0             	mov    -0x30(%ebp),%eax
  40221d:	6a 01                	push   $0x1
  40221f:	ff 75 b0             	pushl  -0x50(%ebp)
  402222:	8b 08                	mov    (%eax),%ecx
  402224:	50                   	push   %eax
  402225:	ff 51 18             	call   *0x18(%ecx)
  402228:	89 45 f0             	mov    %eax,-0x10(%ebp)
  40222b:	8b 45 d0             	mov    -0x30(%ebp),%eax
  40222e:	50                   	push   %eax
  40222f:	8b 08                	mov    (%eax),%ecx
  402231:	ff 51 08             	call   *0x8(%ecx)
  402234:	8b 45 08             	mov    0x8(%ebp),%eax
  402237:	50                   	push   %eax
  402238:	8b 08                	mov    (%eax),%ecx
  40223a:	ff 51 08             	call   *0x8(%ecx)
  40223d:	39 5d f0             	cmp    %ebx,-0x10(%ebp)
  402240:	7d 13                	jge    0x402255
  402242:	c7 45 fc 01 00 00 00 	movl   $0x1,-0x4(%ebp)
  402249:	6a f0                	push   $0xfffffff0
  40224b:	e8 d3 f1 ff ff       	call   0x401423
  402250:	e9 86 08 00 00       	jmp    0x402adb
  402255:	6a f4                	push   $0xfffffff4
  402257:	eb f2                	jmp    0x40224b
  402259:	53                   	push   %ebx
  40225a:	e8 f4 09 00 00       	call   0x402c53
  40225f:	6a 11                	push   $0x11
  402261:	8b f0                	mov    %eax,%esi
  402263:	e8 eb 09 00 00       	call   0x402c53
  402268:	6a 23                	push   $0x23
  40226a:	8b f8                	mov    %eax,%edi
  40226c:	e8 e2 09 00 00       	call   0x402c53
  402271:	56                   	push   %esi
  402272:	89 45 08             	mov    %eax,0x8(%ebp)
  402275:	e8 db 42 00 00       	call   0x406555
  40227a:	85 c0                	test   %eax,%eax
  40227c:	75 0d                	jne    0x40228b
  40227e:	53                   	push   %ebx
  40227f:	6a f9                	push   $0xfffffff9
  402281:	e8 eb 30 00 00       	call   0x405371
  402286:	e9 16 06 00 00       	jmp    0x4028a1
  40228b:	8b 45 f8             	mov    -0x8(%ebp),%eax
  40228e:	56                   	push   %esi
  40228f:	89 45 98             	mov    %eax,-0x68(%ebp)
  402292:	c7 45 9c 02 00 00 00 	movl   $0x2,-0x64(%ebp)
  402299:	e8 8a 3f 00 00       	call   0x406228
  40229e:	57                   	push   %edi
  40229f:	66 89 5c 46 02       	mov    %bx,0x2(%esi,%eax,2)
  4022a4:	e8 7f 3f 00 00       	call   0x406228
  4022a9:	66 89 5c 47 02       	mov    %bx,0x2(%edi,%eax,2)
  4022ae:	8b 45 08             	mov    0x8(%ebp),%eax
  4022b1:	66 8b 4d e0          	mov    -0x20(%ebp),%cx
  4022b5:	50                   	push   %eax
  4022b6:	53                   	push   %ebx
  4022b7:	89 75 a0             	mov    %esi,-0x60(%ebp)
  4022ba:	89 7d a4             	mov    %edi,-0x5c(%ebp)
  4022bd:	89 45 b2             	mov    %eax,-0x4e(%ebp)
  4022c0:	66 89 4d a8          	mov    %cx,-0x58(%ebp)
  4022c4:	e8 a8 30 00 00       	call   0x405371
  4022c9:	8d 45 98             	lea    -0x68(%ebp),%eax
  4022cc:	50                   	push   %eax
  4022cd:	ff 15 90 81 40 00    	call   *0x408190
  4022d3:	85 c0                	test   %eax,%eax
  4022d5:	0f 84 00 08 00 00    	je     0x402adb
  4022db:	eb a1                	jmp    0x40227e
  4022dd:	3d 0d f0 ad 0b       	cmp    $0xbadf00d,%eax
  4022e2:	74 1d                	je     0x402301
  4022e4:	68 10 00 20 00       	push   $0x200010
  4022e9:	6a e8                	push   $0xffffffe8
  4022eb:	53                   	push   %ebx
  4022ec:	e8 43 3f 00 00       	call   0x406234
  4022f1:	50                   	push   %eax
  4022f2:	e8 60 36 00 00       	call   0x405957
  4022f7:	b8 ff ff ff 7f       	mov    $0x7fffffff,%eax
  4022fc:	e9 e5 07 00 00       	jmp    0x402ae6
  402301:	ff 05 d4 a2 42 00    	incl   0x42a2d4
  402307:	e9 cf 07 00 00       	jmp    0x402adb
  40230c:	33 f6                	xor    %esi,%esi
  40230e:	33 ff                	xor    %edi,%edi
  402310:	3b c3                	cmp    %ebx,%eax
  402312:	74 08                	je     0x40231c
  402314:	53                   	push   %ebx
  402315:	e8 39 09 00 00       	call   0x402c53
  40231a:	8b f0                	mov    %eax,%esi
  40231c:	39 5d dc             	cmp    %ebx,-0x24(%ebp)
  40231f:	74 09                	je     0x40232a
  402321:	6a 11                	push   $0x11
  402323:	e8 2b 09 00 00       	call   0x402c53
  402328:	8b f8                	mov    %eax,%edi
  40232a:	39 5d e8             	cmp    %ebx,-0x18(%ebp)
  40232d:	74 09                	je     0x402338
  40232f:	6a 22                	push   $0x22
  402331:	e8 1d 09 00 00       	call   0x402c53
  402336:	8b d8                	mov    %eax,%ebx
  402338:	6a cd                	push   $0xffffffcd
  40233a:	e8 14 09 00 00       	call   0x402c53
  40233f:	50                   	push   %eax
  402340:	53                   	push   %ebx
  402341:	57                   	push   %edi
  402342:	56                   	push   %esi
  402343:	ff 15 68 81 40 00    	call   *0x408168
  402349:	e9 66 f2 ff ff       	jmp    0x4015b4
  40234e:	a1 10 a0 40 00       	mov    0x40a010,%eax
  402353:	6a 01                	push   $0x1
  402355:	89 45 08             	mov    %eax,0x8(%ebp)
  402358:	e8 f6 08 00 00       	call   0x402c53
  40235d:	6a 12                	push   $0x12
  40235f:	8b f8                	mov    %eax,%edi
  402361:	e8 ed 08 00 00       	call   0x402c53
  402366:	6a dd                	push   $0xffffffdd
  402368:	89 45 b0             	mov    %eax,-0x50(%ebp)
  40236b:	e8 e3 08 00 00       	call   0x402c53
  402370:	50                   	push   %eax
  402371:	68 ff 03 00 00       	push   $0x3ff
  402376:	8d 45 08             	lea    0x8(%ebp),%eax
  402379:	56                   	push   %esi
  40237a:	50                   	push   %eax
  40237b:	ff 75 b0             	pushl  -0x50(%ebp)
  40237e:	57                   	push   %edi
  40237f:	ff 15 64 81 40 00    	call   *0x408164
  402385:	66 83 3e 0a          	cmpw   $0xa,(%esi)
  402389:	e9 c3 f3 ff ff       	jmp    0x401751
  40238e:	39 5d e8             	cmp    %ebx,-0x18(%ebp)
  402391:	75 2b                	jne    0x4023be
  402393:	6a 02                	push   $0x2
  402395:	e8 c3 09 00 00       	call   0x402d5d
  40239a:	8b f0                	mov    %eax,%esi
  40239c:	3b f3                	cmp    %ebx,%esi
  40239e:	0f 84 fd 04 00 00    	je     0x4028a1
  4023a4:	6a 33                	push   $0x33
  4023a6:	e8 a8 08 00 00       	call   0x402c53
  4023ab:	50                   	push   %eax
  4023ac:	56                   	push   %esi
  4023ad:	ff 15 1c 80 40 00    	call   *0x40801c
  4023b3:	56                   	push   %esi
  4023b4:	8b f8                	mov    %eax,%edi
  4023b6:	ff 15 20 80 40 00    	call   *0x408020
  4023bc:	eb 1f                	jmp    0x4023dd
  4023be:	6a 22                	push   $0x22
  4023c0:	e8 8e 08 00 00       	call   0x402c53
  4023c5:	8b 4d e8             	mov    -0x18(%ebp),%ecx
  4023c8:	83 e1 02             	and    $0x2,%ecx
  4023cb:	51                   	push   %ecx
  4023cc:	50                   	push   %eax
  4023cd:	ff 75 dc             	pushl  -0x24(%ebp)
  4023d0:	e8 73 09 00 00       	call   0x402d48
  4023d5:	50                   	push   %eax
  4023d6:	e8 b8 08 00 00       	call   0x402c93
  4023db:	8b f8                	mov    %eax,%edi
  4023dd:	3b fb                	cmp    %ebx,%edi
  4023df:	0f 84 f6 06 00 00    	je     0x402adb
  4023e5:	e9 b7 04 00 00       	jmp    0x4028a1
  4023ea:	50                   	push   %eax
  4023eb:	e8 58 09 00 00       	call   0x402d48
  4023f0:	8b 75 e8             	mov    -0x18(%ebp),%esi
  4023f3:	8b f8                	mov    %eax,%edi
  4023f5:	8b 45 ec             	mov    -0x14(%ebp),%eax
  4023f8:	6a 02                	push   $0x2
  4023fa:	89 45 b0             	mov    %eax,-0x50(%ebp)
  4023fd:	e8 51 08 00 00       	call   0x402c53
  402402:	6a 11                	push   $0x11
  402404:	89 45 c8             	mov    %eax,-0x38(%ebp)
  402407:	e8 47 08 00 00       	call   0x402c53
  40240c:	8d 4d 08             	lea    0x8(%ebp),%ecx
  40240f:	53                   	push   %ebx
  402410:	51                   	push   %ecx
  402411:	8b 0d f0 a2 42 00    	mov    0x42a2f0,%ecx
  402417:	83 c9 02             	or     $0x2,%ecx
  40241a:	53                   	push   %ebx
  40241b:	51                   	push   %ecx
  40241c:	53                   	push   %ebx
  40241d:	53                   	push   %ebx
  40241e:	53                   	push   %ebx
  40241f:	50                   	push   %eax
  402420:	57                   	push   %edi
  402421:	c7 45 fc 01 00 00 00 	movl   $0x1,-0x4(%ebp)
  402428:	ff 15 24 80 40 00    	call   *0x408024
  40242e:	85 c0                	test   %eax,%eax
  402430:	0f 85 a5 06 00 00    	jne    0x402adb
  402436:	83 fe 01             	cmp    $0x1,%esi
  402439:	bf d8 b5 40 00       	mov    $0x40b5d8,%edi
  40243e:	75 11                	jne    0x402451
  402440:	6a 23                	push   $0x23
  402442:	e8 0c 08 00 00       	call   0x402c53
  402447:	57                   	push   %edi
  402448:	e8 db 3d 00 00       	call   0x406228
  40244d:	8d 44 00 02          	lea    0x2(%eax,%eax,1),%eax
  402451:	83 fe 04             	cmp    $0x4,%esi
  402454:	75 12                	jne    0x402468
  402456:	6a 03                	push   $0x3
  402458:	e8 d4 07 00 00       	call   0x402c31
  40245d:	59                   	pop    %ecx
  40245e:	a3 d8 b5 40 00       	mov    %eax,0x40b5d8
  402463:	56                   	push   %esi
  402464:	89 55 d0             	mov    %edx,-0x30(%ebp)
  402467:	58                   	pop    %eax
  402468:	83 fe 03             	cmp    $0x3,%esi
  40246b:	75 0f                	jne    0x40247c
  40246d:	68 00 18 00 00       	push   $0x1800
  402472:	57                   	push   %edi
  402473:	53                   	push   %ebx
  402474:	ff 75 e4             	pushl  -0x1c(%ebp)
  402477:	e8 ff 0c 00 00       	call   0x40317b
  40247c:	50                   	push   %eax
  40247d:	57                   	push   %edi
  40247e:	ff 75 b0             	pushl  -0x50(%ebp)
  402481:	53                   	push   %ebx
  402482:	ff 75 c8             	pushl  -0x38(%ebp)
  402485:	ff 75 08             	pushl  0x8(%ebp)
  402488:	ff 15 28 80 40 00    	call   *0x408028
  40248e:	85 c0                	test   %eax,%eax
  402490:	75 03                	jne    0x402495
  402492:	89 5d fc             	mov    %ebx,-0x4(%ebp)
  402495:	ff 75 08             	pushl  0x8(%ebp)
  402498:	e9 d0 00 00 00       	jmp    0x40256d
  40249d:	68 19 00 02 00       	push   $0x20019
  4024a2:	e8 b6 08 00 00       	call   0x402d5d
  4024a7:	6a 33                	push   $0x33
  4024a9:	8b f8                	mov    %eax,%edi
  4024ab:	e8 a3 07 00 00       	call   0x402c53
  4024b0:	3b fb                	cmp    %ebx,%edi
  4024b2:	66 89 1e             	mov    %bx,(%esi)
  4024b5:	0f 84 e6 03 00 00    	je     0x4028a1
  4024bb:	8d 4d b0             	lea    -0x50(%ebp),%ecx
  4024be:	c7 45 b0 00 08 00 00 	movl   $0x800,-0x50(%ebp)
  4024c5:	51                   	push   %ecx
  4024c6:	8d 4d 08             	lea    0x8(%ebp),%ecx
  4024c9:	56                   	push   %esi
  4024ca:	51                   	push   %ecx
  4024cb:	53                   	push   %ebx
  4024cc:	50                   	push   %eax
  4024cd:	57                   	push   %edi
  4024ce:	ff 15 2c 80 40 00    	call   *0x40802c
  4024d4:	33 c9                	xor    %ecx,%ecx
  4024d6:	41                   	inc    %ecx
  4024d7:	85 c0                	test   %eax,%eax
  4024d9:	75 2e                	jne    0x402509
  4024db:	83 7d 08 04          	cmpl   $0x4,0x8(%ebp)
  4024df:	74 13                	je     0x4024f4
  4024e1:	39 4d 08             	cmp    %ecx,0x8(%ebp)
  4024e4:	74 06                	je     0x4024ec
  4024e6:	83 7d 08 02          	cmpl   $0x2,0x8(%ebp)
  4024ea:	75 1d                	jne    0x402509
  4024ec:	8b 45 e8             	mov    -0x18(%ebp),%eax
  4024ef:	89 45 fc             	mov    %eax,-0x4(%ebp)
  4024f2:	eb 71                	jmp    0x402565
  4024f4:	ff 36                	pushl  (%esi)
  4024f6:	33 c0                	xor    %eax,%eax
  4024f8:	39 5d e8             	cmp    %ebx,-0x18(%ebp)
  4024fb:	56                   	push   %esi
  4024fc:	0f 94 c0             	sete   %al
  4024ff:	89 45 fc             	mov    %eax,-0x4(%ebp)
  402502:	e8 52 3c 00 00       	call   0x406159
  402507:	eb 63                	jmp    0x40256c
  402509:	66 89 1e             	mov    %bx,(%esi)
  40250c:	89 4d fc             	mov    %ecx,-0x4(%ebp)
  40250f:	eb 5b                	jmp    0x40256c
  402511:	68 19 00 02 00       	push   $0x20019
  402516:	e8 42 08 00 00       	call   0x402d5d
  40251b:	6a 03                	push   $0x3
  40251d:	8b f8                	mov    %eax,%edi
  40251f:	e8 0d 07 00 00       	call   0x402c31
  402524:	3b fb                	cmp    %ebx,%edi
  402526:	59                   	pop    %ecx
  402527:	89 55 b0             	mov    %edx,-0x50(%ebp)
  40252a:	66 89 1e             	mov    %bx,(%esi)
  40252d:	0f 84 6e 03 00 00    	je     0x4028a1
  402533:	39 5d e8             	cmp    %ebx,-0x18(%ebp)
  402536:	b9 ff 03 00 00       	mov    $0x3ff,%ecx
  40253b:	89 4d 08             	mov    %ecx,0x8(%ebp)
  40253e:	74 0c                	je     0x40254c
  402540:	51                   	push   %ecx
  402541:	56                   	push   %esi
  402542:	50                   	push   %eax
  402543:	57                   	push   %edi
  402544:	ff 15 30 80 40 00    	call   *0x408030
  40254a:	eb 19                	jmp    0x402565
  40254c:	53                   	push   %ebx
  40254d:	53                   	push   %ebx
  40254e:	53                   	push   %ebx
  40254f:	8d 4d 08             	lea    0x8(%ebp),%ecx
  402552:	53                   	push   %ebx
  402553:	51                   	push   %ecx
  402554:	56                   	push   %esi
  402555:	50                   	push   %eax
  402556:	57                   	push   %edi
  402557:	ff 15 18 80 40 00    	call   *0x408018
  40255d:	85 c0                	test   %eax,%eax
  40255f:	0f 85 3c 03 00 00    	jne    0x4028a1
  402565:	66 89 9e fe 07 00 00 	mov    %bx,0x7fe(%esi)
  40256c:	57                   	push   %edi
  40256d:	ff 15 20 80 40 00    	call   *0x408020
  402573:	e9 63 05 00 00       	jmp    0x402adb
  402578:	56                   	push   %esi
  402579:	e8 f4 3b 00 00       	call   0x406172
  40257e:	3b c3                	cmp    %ebx,%eax
  402580:	0f 84 55 05 00 00    	je     0x402adb
  402586:	50                   	push   %eax
  402587:	e9 c1 f9 ff ff       	jmp    0x401f4d
  40258c:	6a ed                	push   $0xffffffed
  40258e:	e8 c0 06 00 00       	call   0x402c53
  402593:	ff 75 e0             	pushl  -0x20(%ebp)
  402596:	ff 75 dc             	pushl  -0x24(%ebp)
  402599:	50                   	push   %eax
  40259a:	e8 48 38 00 00       	call   0x405de7
  40259f:	83 f8 ff             	cmp    $0xffffffff,%eax
  4025a2:	0f 84 f6 02 00 00    	je     0x40289e
  4025a8:	50                   	push   %eax
  4025a9:	e9 bf ef ff ff       	jmp    0x40156d
  4025ae:	8b 45 e0             	mov    -0x20(%ebp),%eax
  4025b1:	33 c9                	xor    %ecx,%ecx
  4025b3:	83 fa 38             	cmp    $0x38,%edx
  4025b6:	89 45 b0             	mov    %eax,-0x50(%ebp)
  4025b9:	0f 94 c1             	sete   %cl
  4025bc:	3b c3                	cmp    %ebx,%eax
  4025be:	8b f9                	mov    %ecx,%edi
  4025c0:	74 1b                	je     0x4025dd
  4025c2:	6a 01                	push   $0x1
  4025c4:	e8 68 06 00 00       	call   0x402c31
  4025c9:	66 a3 d8 ad 40 00    	mov    %ax,0x40add8
  4025cf:	33 c0                	xor    %eax,%eax
  4025d1:	3b fb                	cmp    %ebx,%edi
  4025d3:	59                   	pop    %ecx
  4025d4:	0f 94 c0             	sete   %al
  4025d7:	89 55 c8             	mov    %edx,-0x38(%ebp)
  4025da:	40                   	inc    %eax
  4025db:	eb 43                	jmp    0x402620
  4025dd:	83 fa 38             	cmp    $0x38,%edx
  4025e0:	75 2f                	jne    0x402611
  4025e2:	6a 21                	push   $0x21
  4025e4:	e8 6a 06 00 00       	call   0x402c53
  4025e9:	53                   	push   %ebx
  4025ea:	53                   	push   %ebx
  4025eb:	68 00 04 00 00       	push   $0x400
  4025f0:	68 d8 ad 40 00       	push   $0x40add8
  4025f5:	6a ff                	push   $0xffffffff
  4025f7:	68 d8 b5 40 00       	push   $0x40b5d8
  4025fc:	53                   	push   %ebx
  4025fd:	53                   	push   %ebx
  4025fe:	ff 15 60 81 40 00    	call   *0x408160
  402604:	68 d8 ad 40 00       	push   $0x40add8
  402609:	ff 15 5c 81 40 00    	call   *0x40815c
  40260f:	eb 0f                	jmp    0x402620
  402611:	6a 11                	push   $0x11
  402613:	e8 3b 06 00 00       	call   0x402c53
  402618:	50                   	push   %eax
  402619:	e8 0a 3c 00 00       	call   0x406228
  40261e:	03 c0                	add    %eax,%eax
  402620:	66 39 1e             	cmp    %bx,(%esi)
  402623:	89 45 08             	mov    %eax,0x8(%ebp)
  402626:	0f 84 75 02 00 00    	je     0x4028a1
  40262c:	56                   	push   %esi
  40262d:	e8 40 3b 00 00       	call   0x406172
  402632:	0b 7d b0             	or     -0x50(%ebp),%edi
  402635:	8b f0                	mov    %eax,%esi
  402637:	75 14                	jne    0x40264d
  402639:	39 5d e4             	cmp    %ebx,-0x1c(%ebp)
  40263c:	74 0f                	je     0x40264d
  40263e:	56                   	push   %esi
  40263f:	56                   	push   %esi
  402640:	e8 83 38 00 00       	call   0x405ec8
  402645:	85 c0                	test   %eax,%eax
  402647:	0f 8c 54 02 00 00    	jl     0x4028a1
  40264d:	ff 75 08             	pushl  0x8(%ebp)
  402650:	68 d8 ad 40 00       	push   $0x40add8
  402655:	56                   	push   %esi
  402656:	e8 3e 38 00 00       	call   0x405e99
  40265b:	e9 54 ef ff ff       	jmp    0x4015b4
  402660:	6a 02                	push   $0x2
  402662:	89 5d f8             	mov    %ebx,-0x8(%ebp)
  402665:	58                   	pop    %eax
  402666:	50                   	push   %eax
  402667:	89 45 b8             	mov    %eax,-0x48(%ebp)
  40266a:	e8 c2 05 00 00       	call   0x402c31
  40266f:	83 f8 01             	cmp    $0x1,%eax
  402672:	59                   	pop    %ecx
  402673:	89 55 b0             	mov    %edx,-0x50(%ebp)
  402676:	89 45 c8             	mov    %eax,-0x38(%ebp)
  402679:	0f 8c 5c 04 00 00    	jl     0x402adb
  40267f:	b9 ff 03 00 00       	mov    $0x3ff,%ecx
  402684:	3b c1                	cmp    %ecx,%eax
  402686:	7e 03                	jle    0x40268b
  402688:	89 4d c8             	mov    %ecx,-0x38(%ebp)
  40268b:	66 39 1e             	cmp    %bx,(%esi)
  40268e:	0f 84 5e 01 00 00    	je     0x4027f2
  402694:	56                   	push   %esi
  402695:	89 5d d0             	mov    %ebx,-0x30(%ebp)
  402698:	e8 d5 3a 00 00       	call   0x406172
  40269d:	39 5d c8             	cmp    %ebx,-0x38(%ebp)
  4026a0:	89 45 f0             	mov    %eax,-0x10(%ebp)
  4026a3:	0f 8e 49 01 00 00    	jle    0x4027f2
  4026a9:	8b 3d 58 81 40 00    	mov    0x408158,%edi
  4026af:	83 7d d4 39          	cmpl   $0x39,-0x2c(%ebp)
  4026b3:	0f 85 8f 00 00 00    	jne    0x402748
  4026b9:	8d 45 c0             	lea    -0x40(%ebp),%eax
  4026bc:	53                   	push   %ebx
  4026bd:	50                   	push   %eax
  4026be:	6a 02                	push   $0x2
  4026c0:	58                   	pop    %eax
  4026c1:	2b 45 e4             	sub    -0x1c(%ebp),%eax
  4026c4:	50                   	push   %eax
  4026c5:	8d 45 0a             	lea    0xa(%ebp),%eax
  4026c8:	50                   	push   %eax
  4026c9:	ff 75 f0             	pushl  -0x10(%ebp)
  4026cc:	ff 15 4c 81 40 00    	call   *0x40814c
  4026d2:	85 c0                	test   %eax,%eax
  4026d4:	0f 84 18 01 00 00    	je     0x4027f2
  4026da:	8b 4d c0             	mov    -0x40(%ebp),%ecx
  4026dd:	3b cb                	cmp    %ebx,%ecx
  4026df:	0f 84 0d 01 00 00    	je     0x4027f2
  4026e5:	66 0f b6 45 0a       	movzbw 0xa(%ebp),%ax
  4026ea:	39 5d e4             	cmp    %ebx,-0x1c(%ebp)
  4026ed:	89 4d b8             	mov    %ecx,-0x48(%ebp)
  4026f0:	89 45 bc             	mov    %eax,-0x44(%ebp)
  4026f3:	0f 85 b5 00 00 00    	jne    0x4027ae
  4026f9:	8d 45 bc             	lea    -0x44(%ebp),%eax
  4026fc:	6a 01                	push   $0x1
  4026fe:	50                   	push   %eax
  4026ff:	8d 45 0a             	lea    0xa(%ebp),%eax
  402702:	51                   	push   %ecx
  402703:	50                   	push   %eax
  402704:	6a 08                	push   $0x8
  402706:	53                   	push   %ebx
  402707:	ff d7                	call   *%edi
  402709:	85 c0                	test   %eax,%eax
  40270b:	75 68                	jne    0x402775
  40270d:	8b 75 b8             	mov    -0x48(%ebp),%esi
  402710:	f7 de                	neg    %esi
  402712:	ff 4d c0             	decl   -0x40(%ebp)
  402715:	b8 fd ff 00 00       	mov    $0xfffd,%eax
  40271a:	89 45 bc             	mov    %eax,-0x44(%ebp)
  40271d:	74 59                	je     0x402778
  40271f:	ff 4d b8             	decl   -0x48(%ebp)
  402722:	46                   	inc    %esi
  402723:	6a 01                	push   $0x1
  402725:	53                   	push   %ebx
  402726:	56                   	push   %esi
  402727:	ff 75 f0             	pushl  -0x10(%ebp)
  40272a:	ff 15 48 81 40 00    	call   *0x408148
  402730:	8d 45 bc             	lea    -0x44(%ebp),%eax
  402733:	6a 01                	push   $0x1
  402735:	50                   	push   %eax
  402736:	8d 45 0a             	lea    0xa(%ebp),%eax
  402739:	ff 75 c0             	pushl  -0x40(%ebp)
  40273c:	50                   	push   %eax
  40273d:	6a 08                	push   $0x8
  40273f:	53                   	push   %ebx
  402740:	ff d7                	call   *%edi
  402742:	85 c0                	test   %eax,%eax
  402744:	74 cc                	je     0x402712
  402746:	eb 2d                	jmp    0x402775
  402748:	39 5d e4             	cmp    %ebx,-0x1c(%ebp)
  40274b:	75 16                	jne    0x402763
  40274d:	39 5d f8             	cmp    %ebx,-0x8(%ebp)
  402750:	75 11                	jne    0x402763
  402752:	53                   	push   %ebx
  402753:	ff 75 f0             	pushl  -0x10(%ebp)
  402756:	e8 6d 37 00 00       	call   0x405ec8
  40275b:	85 c0                	test   %eax,%eax
  40275d:	0f 8c 8f 00 00 00    	jl     0x4027f2
  402763:	8d 45 bc             	lea    -0x44(%ebp),%eax
  402766:	6a 02                	push   $0x2
  402768:	50                   	push   %eax
  402769:	ff 75 f0             	pushl  -0x10(%ebp)
  40276c:	e8 f9 36 00 00       	call   0x405e6a
  402771:	85 c0                	test   %eax,%eax
  402773:	74 7d                	je     0x4027f2
  402775:	8b 45 bc             	mov    -0x44(%ebp),%eax
  402778:	39 5d e4             	cmp    %ebx,-0x1c(%ebp)
  40277b:	75 31                	jne    0x4027ae
  40277d:	66 83 7d d0 0d       	cmpw   $0xd,-0x30(%ebp)
  402782:	74 3b                	je     0x4027bf
  402784:	66 83 7d d0 0a       	cmpw   $0xa,-0x30(%ebp)
  402789:	74 34                	je     0x4027bf
  40278b:	8b 4d f4             	mov    -0xc(%ebp),%ecx
  40278e:	8b 55 f8             	mov    -0x8(%ebp),%edx
  402791:	ff 45 f8             	incl   -0x8(%ebp)
  402794:	66 3b c3             	cmp    %bx,%ax
  402797:	66 89 04 51          	mov    %ax,(%ecx,%edx,2)
  40279b:	89 45 d0             	mov    %eax,-0x30(%ebp)
  40279e:	74 52                	je     0x4027f2
  4027a0:	8b 45 f8             	mov    -0x8(%ebp),%eax
  4027a3:	3b 45 c8             	cmp    -0x38(%ebp),%eax
  4027a6:	0f 8c 03 ff ff ff    	jl     0x4026af
  4027ac:	eb 44                	jmp    0x4027f2
  4027ae:	0f b7 c0             	movzwl %ax,%eax
  4027b1:	50                   	push   %eax
  4027b2:	ff 75 f4             	pushl  -0xc(%ebp)
  4027b5:	e8 9f 39 00 00       	call   0x406159
  4027ba:	e9 25 03 00 00       	jmp    0x402ae4
  4027bf:	66 39 45 d0          	cmp    %ax,-0x30(%ebp)
  4027c3:	74 1b                	je     0x4027e0
  4027c5:	66 3d 0d 00          	cmp    $0xd,%ax
  4027c9:	74 06                	je     0x4027d1
  4027cb:	66 3d 0a 00          	cmp    $0xa,%ax
  4027cf:	75 0f                	jne    0x4027e0
  4027d1:	8b 4d f4             	mov    -0xc(%ebp),%ecx
  4027d4:	8b 55 f8             	mov    -0x8(%ebp),%edx
  4027d7:	ff 45 f8             	incl   -0x8(%ebp)
  4027da:	66 89 04 51          	mov    %ax,(%ecx,%edx,2)
  4027de:	eb 12                	jmp    0x4027f2
  4027e0:	8b 45 b8             	mov    -0x48(%ebp),%eax
  4027e3:	6a 01                	push   $0x1
  4027e5:	f7 d8                	neg    %eax
  4027e7:	53                   	push   %ebx
  4027e8:	50                   	push   %eax
  4027e9:	ff 75 f0             	pushl  -0x10(%ebp)
  4027ec:	ff 15 48 81 40 00    	call   *0x408148
  4027f2:	8b 4d f4             	mov    -0xc(%ebp),%ecx
  4027f5:	8b 45 f8             	mov    -0x8(%ebp),%eax
  4027f8:	3b c3                	cmp    %ebx,%eax
  4027fa:	66 89 1c 41          	mov    %bx,(%ecx,%eax,2)
  4027fe:	e9 b3 ed ff ff       	jmp    0x4015b6
  402803:	66 39 1e             	cmp    %bx,(%esi)
  402806:	0f 84 cf 02 00 00    	je     0x402adb
  40280c:	6a 02                	push   $0x2
  40280e:	e8 1e 04 00 00       	call   0x402c31
  402813:	59                   	pop    %ecx
  402814:	89 55 b0             	mov    %edx,-0x50(%ebp)
  402817:	ff 75 e4             	pushl  -0x1c(%ebp)
  40281a:	53                   	push   %ebx
  40281b:	50                   	push   %eax
  40281c:	56                   	push   %esi
  40281d:	e8 50 39 00 00       	call   0x406172
  402822:	50                   	push   %eax
  402823:	ff 15 48 81 40 00    	call   *0x408148
  402829:	39 5d dc             	cmp    %ebx,-0x24(%ebp)
  40282c:	0f 8c a9 02 00 00    	jl     0x402adb
  402832:	e9 46 02 00 00       	jmp    0x402a7d
  402837:	56                   	push   %esi
  402838:	e8 35 39 00 00       	call   0x406172
  40283d:	3b c3                	cmp    %ebx,%eax
  40283f:	0f 84 96 02 00 00    	je     0x402adb
  402845:	50                   	push   %eax
  402846:	ff 15 50 81 40 00    	call   *0x408150
  40284c:	e9 8a 02 00 00       	jmp    0x402adb
  402851:	ff 75 f4             	pushl  -0xc(%ebp)
  402854:	e8 19 39 00 00       	call   0x406172
  402859:	3b c3                	cmp    %ebx,%eax
  40285b:	74 12                	je     0x40286f
  40285d:	8d 8d 48 fd ff ff    	lea    -0x2b8(%ebp),%ecx
  402863:	51                   	push   %ecx
  402864:	50                   	push   %eax
  402865:	ff 15 40 81 40 00    	call   *0x408140
  40286b:	85 c0                	test   %eax,%eax
  40286d:	75 47                	jne    0x4028b6
  40286f:	c7 45 fc 01 00 00 00 	movl   $0x1,-0x4(%ebp)
  402876:	66 89 1e             	mov    %bx,(%esi)
  402879:	e9 5d 02 00 00       	jmp    0x402adb
  40287e:	6a 02                	push   $0x2
  402880:	e8 ce 03 00 00       	call   0x402c53
  402885:	8d 8d 48 fd ff ff    	lea    -0x2b8(%ebp),%ecx
  40288b:	51                   	push   %ecx
  40288c:	50                   	push   %eax
  40288d:	ff 15 3c 81 40 00    	call   *0x40813c
  402893:	83 f8 ff             	cmp    $0xffffffff,%eax
  402896:	75 15                	jne    0x4028ad
  402898:	8b 45 f4             	mov    -0xc(%ebp),%eax
  40289b:	66 89 18             	mov    %bx,(%eax)
  40289e:	66 89 1e             	mov    %bx,(%esi)
  4028a1:	c7 45 fc 01 00 00 00 	movl   $0x1,-0x4(%ebp)
  4028a8:	e9 2e 02 00 00       	jmp    0x402adb
  4028ad:	50                   	push   %eax
  4028ae:	ff 75 f4             	pushl  -0xc(%ebp)
  4028b1:	e8 a3 38 00 00       	call   0x406159
  4028b6:	8d 85 74 fd ff ff    	lea    -0x28c(%ebp),%eax
  4028bc:	50                   	push   %eax
  4028bd:	56                   	push   %esi
  4028be:	e9 34 01 00 00       	jmp    0x4029f7
  4028c3:	6a f0                	push   $0xfffffff0
  4028c5:	c7 45 d0 66 fd ff ff 	movl   $0xfffffd66,-0x30(%ebp)
  4028cc:	e8 82 03 00 00       	call   0x402c53
  4028d1:	8b f0                	mov    %eax,%esi
  4028d3:	56                   	push   %esi
  4028d4:	89 75 c0             	mov    %esi,-0x40(%ebp)
  4028d7:	e8 61 33 00 00       	call   0x405c3d
  4028dc:	85 c0                	test   %eax,%eax
  4028de:	75 07                	jne    0x4028e7
  4028e0:	6a ed                	push   $0xffffffed
  4028e2:	e8 6c 03 00 00       	call   0x402c53
  4028e7:	56                   	push   %esi
  4028e8:	e8 d5 34 00 00       	call   0x405dc2
  4028ed:	6a 02                	push   $0x2
  4028ef:	68 00 00 00 40       	push   $0x40000000
  4028f4:	56                   	push   %esi
  4028f5:	e8 ed 34 00 00       	call   0x405de7
  4028fa:	83 f8 ff             	cmp    $0xffffffff,%eax
  4028fd:	89 45 08             	mov    %eax,0x8(%ebp)
  402900:	0f 84 97 00 00 00    	je     0x40299d
  402906:	a1 54 a2 42 00       	mov    0x42a254,%eax
  40290b:	8b 35 0c 81 40 00    	mov    0x40810c,%esi
  402911:	50                   	push   %eax
  402912:	6a 40                	push   $0x40
  402914:	89 45 c8             	mov    %eax,-0x38(%ebp)
  402917:	ff d6                	call   *%esi
  402919:	8b f8                	mov    %eax,%edi
  40291b:	3b fb                	cmp    %ebx,%edi
  40291d:	74 75                	je     0x402994
  40291f:	53                   	push   %ebx
  402920:	e8 dd 0a 00 00       	call   0x403402
  402925:	ff 75 c8             	pushl  -0x38(%ebp)
  402928:	57                   	push   %edi
  402929:	e8 be 0a 00 00       	call   0x4033ec
  40292e:	ff 75 e0             	pushl  -0x20(%ebp)
  402931:	6a 40                	push   $0x40
  402933:	ff d6                	call   *%esi
  402935:	8b f0                	mov    %eax,%esi
  402937:	3b f3                	cmp    %ebx,%esi
  402939:	89 75 b0             	mov    %esi,-0x50(%ebp)
  40293c:	74 34                	je     0x402972
  40293e:	ff 75 e0             	pushl  -0x20(%ebp)
  402941:	56                   	push   %esi
  402942:	53                   	push   %ebx
  402943:	ff 75 dc             	pushl  -0x24(%ebp)
  402946:	e8 30 08 00 00       	call   0x40317b
  40294b:	eb 18                	jmp    0x402965
  40294d:	8b 0e                	mov    (%esi),%ecx
  40294f:	8b 46 04             	mov    0x4(%esi),%eax
  402952:	83 c6 08             	add    $0x8,%esi
  402955:	51                   	push   %ecx
  402956:	03 c7                	add    %edi,%eax
  402958:	56                   	push   %esi
  402959:	50                   	push   %eax
  40295a:	89 4d cc             	mov    %ecx,-0x34(%ebp)
  40295d:	e8 40 34 00 00       	call   0x405da2
  402962:	03 75 cc             	add    -0x34(%ebp),%esi
  402965:	38 1e                	cmp    %bl,(%esi)
  402967:	75 e4                	jne    0x40294d
  402969:	ff 75 b0             	pushl  -0x50(%ebp)
  40296c:	ff 15 08 81 40 00    	call   *0x408108
  402972:	ff 75 c8             	pushl  -0x38(%ebp)
  402975:	57                   	push   %edi
  402976:	ff 75 08             	pushl  0x8(%ebp)
  402979:	e8 1b 35 00 00       	call   0x405e99
  40297e:	57                   	push   %edi
  40297f:	ff 15 08 81 40 00    	call   *0x408108
  402985:	53                   	push   %ebx
  402986:	53                   	push   %ebx
  402987:	ff 75 08             	pushl  0x8(%ebp)
  40298a:	6a ff                	push   $0xffffffff
  40298c:	e8 ea 07 00 00       	call   0x40317b
  402991:	89 45 d0             	mov    %eax,-0x30(%ebp)
  402994:	ff 75 08             	pushl  0x8(%ebp)
  402997:	ff 15 20 81 40 00    	call   *0x408120
  40299d:	39 5d d0             	cmp    %ebx,-0x30(%ebp)
  4029a0:	6a f3                	push   $0xfffffff3
  4029a2:	5e                   	pop    %esi
  4029a3:	7d 13                	jge    0x4029b8
  4029a5:	6a ef                	push   $0xffffffef
  4029a7:	5e                   	pop    %esi
  4029a8:	ff 75 c0             	pushl  -0x40(%ebp)
  4029ab:	ff 15 44 81 40 00    	call   *0x408144
  4029b1:	c7 45 fc 01 00 00 00 	movl   $0x1,-0x4(%ebp)
  4029b8:	56                   	push   %esi
  4029b9:	e9 8d f8 ff ff       	jmp    0x40224b
  4029be:	53                   	push   %ebx
  4029bf:	e8 6d 02 00 00       	call   0x402c31
  4029c4:	8b f8                	mov    %eax,%edi
  4029c6:	59                   	pop    %ecx
  4029c7:	3b 3d 6c a2 42 00    	cmp    0x42a26c,%edi
  4029cd:	89 55 b0             	mov    %edx,-0x50(%ebp)
  4029d0:	0f 83 cb fe ff ff    	jae    0x4028a1
  4029d6:	8b f7                	mov    %edi,%esi
  4029d8:	8b 45 e0             	mov    -0x20(%ebp),%eax
  4029db:	69 f6 18 08 00 00    	imul   $0x818,%esi,%esi
  4029e1:	03 35 68 a2 42 00    	add    0x42a268,%esi
  4029e7:	3b c3                	cmp    %ebx,%eax
  4029e9:	7c 19                	jl     0x402a04
  4029eb:	8b 0c 86             	mov    (%esi,%eax,4),%ecx
  4029ee:	75 11                	jne    0x402a01
  4029f0:	83 c6 18             	add    $0x18,%esi
  4029f3:	56                   	push   %esi
  4029f4:	ff 75 f4             	pushl  -0xc(%ebp)
  4029f7:	e8 16 38 00 00       	call   0x406212
  4029fc:	e9 da 00 00 00       	jmp    0x402adb
  402a01:	51                   	push   %ecx
  402a02:	eb 7a                	jmp    0x402a7e
  402a04:	83 c9 ff             	or     $0xffffffff,%ecx
  402a07:	2b c8                	sub    %eax,%ecx
  402a09:	89 4d e0             	mov    %ecx,-0x20(%ebp)
  402a0c:	74 10                	je     0x402a1e
  402a0e:	6a 01                	push   $0x1
  402a10:	e8 1c 02 00 00       	call   0x402c31
  402a15:	59                   	pop    %ecx
  402a16:	89 55 b0             	mov    %edx,-0x50(%ebp)
  402a19:	89 45 dc             	mov    %eax,-0x24(%ebp)
  402a1c:	eb 10                	jmp    0x402a2e
  402a1e:	ff 75 e8             	pushl  -0x18(%ebp)
  402a21:	8d 46 18             	lea    0x18(%esi),%eax
  402a24:	50                   	push   %eax
  402a25:	e8 0a 38 00 00       	call   0x406234
  402a2a:	80 4e 09 01          	orb    $0x1,0x9(%esi)
  402a2e:	8b 45 e0             	mov    -0x20(%ebp),%eax
  402a31:	8b 4d dc             	mov    -0x24(%ebp),%ecx
  402a34:	89 0c 86             	mov    %ecx,(%esi,%eax,4)
  402a37:	39 5d e4             	cmp    %ebx,-0x1c(%ebp)
  402a3a:	0f 84 9b 00 00 00    	je     0x402adb
  402a40:	57                   	push   %edi
  402a41:	e8 37 e7 ff ff       	call   0x40117d
  402a46:	e9 90 00 00 00       	jmp    0x402adb
  402a4b:	53                   	push   %ebx
  402a4c:	e8 e0 01 00 00       	call   0x402c31
  402a51:	83 f8 20             	cmp    $0x20,%eax
  402a54:	59                   	pop    %ecx
  402a55:	89 55 b0             	mov    %edx,-0x50(%ebp)
  402a58:	0f 83 43 fe ff ff    	jae    0x4028a1
  402a5e:	39 5d e4             	cmp    %ebx,-0x1c(%ebp)
  402a61:	74 25                	je     0x402a88
  402a63:	39 5d e0             	cmp    %ebx,-0x20(%ebp)
  402a66:	74 0f                	je     0x402a77
  402a68:	50                   	push   %eax
  402a69:	e8 2b e8 ff ff       	call   0x401299
  402a6e:	53                   	push   %ebx
  402a6f:	53                   	push   %ebx
  402a70:	e8 7a e7 ff ff       	call   0x4011ef
  402a75:	eb 64                	jmp    0x402adb
  402a77:	53                   	push   %ebx
  402a78:	e8 65 e8 ff ff       	call   0x4012e2
  402a7d:	50                   	push   %eax
  402a7e:	ff 75 f4             	pushl  -0xc(%ebp)
  402a81:	e8 d3 36 00 00       	call   0x406159
  402a86:	eb 53                	jmp    0x402adb
  402a88:	39 5d e0             	cmp    %ebx,-0x20(%ebp)
  402a8b:	74 12                	je     0x402a9f
  402a8d:	8b 15 50 a2 42 00    	mov    0x42a250,%edx
  402a93:	8b 4d dc             	mov    -0x24(%ebp),%ecx
  402a96:	89 8c 82 94 00 00 00 	mov    %ecx,0x94(%edx,%eax,4)
  402a9d:	eb 3c                	jmp    0x402adb
  402a9f:	8b 0d 50 a2 42 00    	mov    0x42a250,%ecx
  402aa5:	ff b4 81 94 00 00 00 	pushl  0x94(%ecx,%eax,4)
  402aac:	ff 75 f4             	pushl  -0xc(%ebp)
  402aaf:	e8 80 37 00 00       	call   0x406234
  402ab4:	eb 25                	jmp    0x402adb
  402ab6:	8b 0d 28 57 42 00    	mov    0x425728,%ecx
  402abc:	53                   	push   %ebx
  402abd:	23 c8                	and    %eax,%ecx
  402abf:	51                   	push   %ecx
  402ac0:	6a 0b                	push   $0xb
  402ac2:	ff 75 f8             	pushl  -0x8(%ebp)
  402ac5:	ff 15 20 82 40 00    	call   *0x408220
  402acb:	39 5d d8             	cmp    %ebx,-0x28(%ebp)
  402ace:	74 0b                	je     0x402adb
  402ad0:	53                   	push   %ebx
  402ad1:	53                   	push   %ebx
  402ad2:	ff 75 f8             	pushl  -0x8(%ebp)
  402ad5:	ff 15 1c 82 40 00    	call   *0x40821c
  402adb:	8b 45 fc             	mov    -0x4(%ebp),%eax
  402ade:	01 05 c8 a2 42 00    	add    %eax,0x42a2c8
  402ae4:	33 c0                	xor    %eax,%eax
  402ae6:	5f                   	pop    %edi
  402ae7:	5e                   	pop    %esi
  402ae8:	5b                   	pop    %ebx
  402ae9:	c9                   	leave  
  402aea:	c2 04 00             	ret    $0x4
  402aed:	e6 2a                	out    %al,$0x2a
  402aef:	40                   	inc    %eax
  402af0:	00 91 14 40 00 9d    	add    %dl,-0x62ffbfec(%ecx)
  402af6:	14 40                	adc    $0x40,%al
  402af8:	00 b8 14 40 00 cb    	add    %bh,-0x34ffbfec(%eax)
  402afe:	14 40                	adc    $0x40,%al
  402b00:	00 d7                	add    %dl,%bh
  402b02:	14 40                	adc    $0x40,%al
  402b04:	00 f5                	add    %dh,%ch
  402b06:	14 40                	adc    $0x40,%al
  402b08:	00 73 15             	add    %dh,0x15(%ebx)
  402b0b:	40                   	inc    %eax
  402b0c:	00 a3 15 40 00 c1    	add    %ah,-0x3effbfeb(%ebx)
  402b12:	15 40 00 6a 16       	adc    $0x166a0040,%eax
  402b17:	40                   	inc    %eax
  402b18:	00 03                	add    %al,(%ebx)
  402b1a:	15 40 00 42 15       	adc    $0x15420040,%eax
  402b1f:	40                   	inc    %eax
  402b20:	00 63 15             	add    %ah,0x15(%ebx)
  402b23:	40                   	inc    %eax
  402b24:	00 7b 16             	add    %bh,0x16(%ebx)
  402b27:	40                   	inc    %eax
  402b28:	00 cc                	add    %cl,%ah
  402b2a:	16                   	push   %ss
  402b2b:	40                   	inc    %eax
  402b2c:	00 35 17 40 00 5c    	add    %dh,0x5c004017
  402b32:	17                   	pop    %ss
  402b33:	40                   	inc    %eax
  402b34:	00 6f 17             	add    %ch,0x17(%edi)
  402b37:	40                   	inc    %eax
  402b38:	00 0c 19             	add    %cl,(%ecx,%ebx,1)
  402b3b:	40                   	inc    %eax
  402b3c:	00 0f                	add    %cl,(%edi)
  402b3e:	19 40 00             	sbb    %eax,0x0(%eax)
  402b41:	41                   	inc    %ecx
  402b42:	19 40 00             	sbb    %eax,0x0(%eax)
  402b45:	56                   	push   %esi
  402b46:	19 40 00             	sbb    %eax,0x0(%eax)
  402b49:	68 19 40 00 ff       	push   $0xff004019
  402b4e:	19 40 00             	sbb    %eax,0x0(%eax)
  402b51:	30 1a                	xor    %bl,(%edx)
  402b53:	40                   	inc    %eax
  402b54:	00 72 1a             	add    %dh,0x1a(%edx)
  402b57:	40                   	inc    %eax
  402b58:	00 b0 1a 40 00 4d    	add    %dh,0x4d00401a(%eax)
  402b5e:	1b 40 00             	sbb    0x0(%eax),%eax
  402b61:	71 1b                	jno    0x402b7e
  402b63:	40                   	inc    %eax
  402b64:	00 19                	add    %bl,(%ecx)
  402b66:	1c 40                	sbb    $0x40,%al
  402b68:	00 19                	add    %bl,(%ecx)
  402b6a:	1c 40                	sbb    $0x40,%al
  402b6c:	00 ed                	add    %ch,%ch
  402b6e:	1c 40                	sbb    $0x40,%al
  402b70:	00 0e                	add    %cl,(%esi)
  402b72:	1d 40 00 33 1d       	sbb    $0x1d330040,%eax
  402b77:	40                   	inc    %eax
  402b78:	00 57 1d             	add    %dl,0x1d(%edi)
  402b7b:	40                   	inc    %eax
  402b7c:	00 b3 1d 40 00 43    	add    %dh,0x4300401d(%ebx)
  402b82:	1e                   	push   %ds
  402b83:	40                   	inc    %eax
  402b84:	00 77 1e             	add    %dh,0x1e(%edi)
  402b87:	40                   	inc    %eax
  402b88:	00 d5                	add    %dl,%ch
  402b8a:	1e                   	push   %ds
  402b8b:	40                   	inc    %eax
  402b8c:	00 58 1f             	add    %bl,0x1f(%eax)
  402b8f:	40                   	inc    %eax
  402b90:	00 8c 1f 40 00 31 20 	add    %cl,0x20310040(%edi,%ebx,1)
  402b97:	40                   	inc    %eax
  402b98:	00 04 21             	add    %al,(%ecx,%eiz,1)
  402b9b:	40                   	inc    %eax
  402b9c:	00 59 22             	add    %bl,0x22(%ecx)
  402b9f:	40                   	inc    %eax
  402ba0:	00 dd                	add    %bl,%ch
  402ba2:	22 40 00             	and    0x0(%eax),%al
  402ba5:	0c 23                	or     $0x23,%al
  402ba7:	40                   	inc    %eax
  402ba8:	00 4e 23             	add    %cl,0x23(%esi)
  402bab:	40                   	inc    %eax
  402bac:	00 8e 23 40 00 ea    	add    %cl,-0x15ffbfdd(%esi)
  402bb2:	23 40 00             	and    0x0(%eax),%eax
  402bb5:	9d                   	popf   
  402bb6:	24 40                	and    $0x40,%al
  402bb8:	00 11                	add    %dl,(%ecx)
  402bba:	25 40 00 78 25       	and    $0x25780040,%eax
  402bbf:	40                   	inc    %eax
  402bc0:	00 8c 25 40 00 ae 25 	add    %cl,0x25ae0040(%ebp,%eiz,1)
  402bc7:	40                   	inc    %eax
  402bc8:	00 60 26             	add    %ah,0x26(%eax)
  402bcb:	40                   	inc    %eax
  402bcc:	00 03                	add    %al,(%ebx)
  402bce:	28 40 00             	sub    %al,0x0(%eax)
  402bd1:	37                   	aaa    
  402bd2:	28 40 00             	sub    %al,0x0(%eax)
  402bd5:	51                   	push   %ecx
  402bd6:	28 40 00             	sub    %al,0x0(%eax)
  402bd9:	7e 28                	jle    0x402c03
  402bdb:	40                   	inc    %eax
  402bdc:	00 c3                	add    %al,%bl
  402bde:	28 40 00             	sub    %al,0x0(%eax)
  402be1:	be 29 40 00 4b       	mov    $0x4b004029,%esi
  402be6:	2a 40 00             	sub    0x0(%eax),%al
  402be9:	db 2a                	fldt   (%edx)
  402beb:	40                   	inc    %eax
  402bec:	00 db                	add    %bl,%bl
  402bee:	2a 40 00             	sub    0x0(%eax),%al
  402bf1:	b6 2a                	mov    $0x2a,%dh
  402bf3:	40                   	inc    %eax
  402bf4:	00 ae 25 40 00 60    	add    %ch,0x60004025(%esi)
  402bfa:	26 40                	es inc %eax
  402bfc:	00 dc                	add    %bl,%ah
  402bfe:	1a 40 00             	sbb    0x0(%eax),%al
  402c01:	e0 1a                	loopne 0x402c1d
  402c03:	40                   	inc    %eax
  402c04:	00 e4                	add    %ah,%ah
  402c06:	1a 40 00             	sbb    0x0(%eax),%al
  402c09:	e9 1a 40 00 f6       	jmp    0xf6406c28
  402c0e:	1a 40 00             	sbb    0x0(%eax),%al
  402c11:	fa                   	cli    
  402c12:	1a 40 00             	sbb    0x0(%eax),%al
  402c15:	fe                   	(bad)  
  402c16:	1a 40 00             	sbb    0x0(%eax),%al
  402c19:	02 1b                	add    (%ebx),%bl
  402c1b:	40                   	inc    %eax
  402c1c:	00 0b                	add    %cl,(%ebx)
  402c1e:	1b 40 00             	sbb    0x0(%eax),%eax
  402c21:	15 1b 40 00 22       	adc    $0x2200401b,%eax
  402c26:	1b 40 00             	sbb    0x0(%eax),%eax
  402c29:	3a 1b                	cmp    (%ebx),%bl
  402c2b:	40                   	inc    %eax
  402c2c:	00 3e                	add    %bh,(%esi)
  402c2e:	1b 40 00             	sbb    0x0(%eax),%eax
  402c31:	8b 44 24 04          	mov    0x4(%esp),%eax
  402c35:	8b 0d d8 cd 40 00    	mov    0x40cdd8,%ecx
  402c3b:	56                   	push   %esi
  402c3c:	ff 34 81             	pushl  (%ecx,%eax,4)
  402c3f:	6a 00                	push   $0x0
  402c41:	e8 ee 35 00 00       	call   0x406234
  402c46:	8b f0                	mov    %eax,%esi
  402c48:	56                   	push   %esi
  402c49:	e8 24 35 00 00       	call   0x406172
  402c4e:	0f b7 16             	movzwl (%esi),%edx
  402c51:	5e                   	pop    %esi
  402c52:	c3                   	ret    
  402c53:	56                   	push   %esi
  402c54:	8b 74 24 08          	mov    0x8(%esp),%esi
  402c58:	85 f6                	test   %esi,%esi
  402c5a:	57                   	push   %edi
  402c5b:	8b c6                	mov    %esi,%eax
  402c5d:	7d 02                	jge    0x402c61
  402c5f:	f7 d8                	neg    %eax
  402c61:	8b 15 d8 cd 40 00    	mov    0x40cdd8,%edx
  402c67:	8b c8                	mov    %eax,%ecx
  402c69:	83 e1 0f             	and    $0xf,%ecx
  402c6c:	c1 f8 04             	sar    $0x4,%eax
  402c6f:	ff 34 8a             	pushl  (%edx,%ecx,4)
  402c72:	c1 e0 0b             	shl    $0xb,%eax
  402c75:	05 d8 a5 40 00       	add    $0x40a5d8,%eax
  402c7a:	50                   	push   %eax
  402c7b:	e8 b4 35 00 00       	call   0x406234
  402c80:	85 f6                	test   %esi,%esi
  402c82:	8b f8                	mov    %eax,%edi
  402c84:	7d 06                	jge    0x402c8c
  402c86:	57                   	push   %edi
  402c87:	e8 1a 38 00 00       	call   0x4064a6
  402c8c:	8b c7                	mov    %edi,%eax
  402c8e:	5f                   	pop    %edi
  402c8f:	5e                   	pop    %esi
  402c90:	c2 04 00             	ret    $0x4
  402c93:	55                   	push   %ebp
  402c94:	8b ec                	mov    %esp,%ebp
  402c96:	81 ec 10 02 00 00    	sub    $0x210,%esp
  402c9c:	53                   	push   %ebx
  402c9d:	56                   	push   %esi
  402c9e:	8d 45 fc             	lea    -0x4(%ebp),%eax
  402ca1:	57                   	push   %edi
  402ca2:	50                   	push   %eax
  402ca3:	a1 f0 a2 42 00       	mov    0x42a2f0,%eax
  402ca8:	0c 08                	or     $0x8,%al
  402caa:	33 db                	xor    %ebx,%ebx
  402cac:	50                   	push   %eax
  402cad:	53                   	push   %ebx
  402cae:	ff 75 0c             	pushl  0xc(%ebp)
  402cb1:	ff 75 08             	pushl  0x8(%ebp)
  402cb4:	ff 15 14 80 40 00    	call   *0x408014
  402cba:	3b c3                	cmp    %ebx,%eax
  402cbc:	75 69                	jne    0x402d27
  402cbe:	8b 35 30 80 40 00    	mov    0x408030,%esi
  402cc4:	bf 05 01 00 00       	mov    $0x105,%edi
  402cc9:	eb 19                	jmp    0x402ce4
  402ccb:	39 5d 10             	cmp    %ebx,0x10(%ebp)
  402cce:	75 4b                	jne    0x402d1b
  402cd0:	8d 85 f0 fd ff ff    	lea    -0x210(%ebp),%eax
  402cd6:	53                   	push   %ebx
  402cd7:	50                   	push   %eax
  402cd8:	ff 75 fc             	pushl  -0x4(%ebp)
  402cdb:	e8 b3 ff ff ff       	call   0x402c93
  402ce0:	85 c0                	test   %eax,%eax
  402ce2:	75 12                	jne    0x402cf6
  402ce4:	8d 85 f0 fd ff ff    	lea    -0x210(%ebp),%eax
  402cea:	57                   	push   %edi
  402ceb:	50                   	push   %eax
  402cec:	53                   	push   %ebx
  402ced:	ff 75 fc             	pushl  -0x4(%ebp)
  402cf0:	ff d6                	call   *%esi
  402cf2:	85 c0                	test   %eax,%eax
  402cf4:	74 d5                	je     0x402ccb
  402cf6:	ff 75 fc             	pushl  -0x4(%ebp)
  402cf9:	ff 15 20 80 40 00    	call   *0x408020
  402cff:	6a 03                	push   $0x3
  402d01:	e8 e6 38 00 00       	call   0x4065ec
  402d06:	3b c3                	cmp    %ebx,%eax
  402d08:	74 24                	je     0x402d2e
  402d0a:	53                   	push   %ebx
  402d0b:	ff 35 f0 a2 42 00    	pushl  0x42a2f0
  402d11:	ff 75 0c             	pushl  0xc(%ebp)
  402d14:	ff 75 08             	pushl  0x8(%ebp)
  402d17:	ff d0                	call   *%eax
  402d19:	eb 0c                	jmp    0x402d27
  402d1b:	ff 75 fc             	pushl  -0x4(%ebp)
  402d1e:	ff 15 20 80 40 00    	call   *0x408020
  402d24:	33 c0                	xor    %eax,%eax
  402d26:	40                   	inc    %eax
  402d27:	5f                   	pop    %edi
  402d28:	5e                   	pop    %esi
  402d29:	5b                   	pop    %ebx
  402d2a:	c9                   	leave  
  402d2b:	c2 0c 00             	ret    $0xc
  402d2e:	39 1d f0 a2 42 00    	cmp    %ebx,0x42a2f0
  402d34:	75 ee                	jne    0x402d24
  402d36:	ff 75 0c             	pushl  0xc(%ebp)
  402d39:	ff 75 08             	pushl  0x8(%ebp)
  402d3c:	ff 15 00 80 40 00    	call   *0x408000
  402d42:	85 c0                	test   %eax,%eax
  402d44:	75 de                	jne    0x402d24
  402d46:	eb df                	jmp    0x402d27
  402d48:	8b 44 24 04          	mov    0x4(%esp),%eax
  402d4c:	85 c0                	test   %eax,%eax
  402d4e:	75 0a                	jne    0x402d5a
  402d50:	a1 c4 a2 42 00       	mov    0x42a2c4,%eax
  402d55:	05 01 00 00 80       	add    $0x80000001,%eax
  402d5a:	c2 04 00             	ret    $0x4
  402d5d:	55                   	push   %ebp
  402d5e:	8b ec                	mov    %esp,%ebp
  402d60:	8d 45 08             	lea    0x8(%ebp),%eax
  402d63:	50                   	push   %eax
  402d64:	a1 f0 a2 42 00       	mov    0x42a2f0,%eax
  402d69:	0b 45 08             	or     0x8(%ebp),%eax
  402d6c:	50                   	push   %eax
  402d6d:	6a 00                	push   $0x0
  402d6f:	6a 22                	push   $0x22
  402d71:	e8 dd fe ff ff       	call   0x402c53
  402d76:	50                   	push   %eax
  402d77:	a1 d8 cd 40 00       	mov    0x40cdd8,%eax
  402d7c:	ff 70 04             	pushl  0x4(%eax)
  402d7f:	e8 c4 ff ff ff       	call   0x402d48
  402d84:	50                   	push   %eax
  402d85:	ff 15 14 80 40 00    	call   *0x408014
  402d8b:	f7 d8                	neg    %eax
  402d8d:	1b c0                	sbb    %eax,%eax
  402d8f:	f7 d0                	not    %eax
  402d91:	23 45 08             	and    0x8(%ebp),%eax
  402d94:	5d                   	pop    %ebp
  402d95:	c2 04 00             	ret    $0x4
  402d98:	55                   	push   %ebp
  402d99:	8b ec                	mov    %esp,%ebp
  402d9b:	81 ec 80 00 00 00    	sub    $0x80,%esp
  402da1:	81 7d 0c 10 01 00 00 	cmpl   $0x110,0xc(%ebp)
  402da8:	75 19                	jne    0x402dc3
  402daa:	6a 00                	push   $0x0
  402dac:	68 fa 00 00 00       	push   $0xfa
  402db1:	6a 01                	push   $0x1
  402db3:	ff 75 08             	pushl  0x8(%ebp)
  402db6:	ff 15 5c 82 40 00    	call   *0x40825c
  402dbc:	c7 45 0c 13 01 00 00 	movl   $0x113,0xc(%ebp)
  402dc3:	81 7d 0c 13 01 00 00 	cmpl   $0x113,0xc(%ebp)
  402dca:	75 45                	jne    0x402e11
  402dcc:	e8 46 00 00 00       	call   0x402e17
  402dd1:	83 3d 50 a2 42 00 00 	cmpl   $0x0,0x42a250
  402dd8:	b9 54 a0 40 00       	mov    $0x40a054,%ecx
  402ddd:	75 05                	jne    0x402de4
  402ddf:	b9 20 a0 40 00       	mov    $0x40a020,%ecx
  402de4:	50                   	push   %eax
  402de5:	8d 45 80             	lea    -0x80(%ebp),%eax
  402de8:	51                   	push   %ecx
  402de9:	50                   	push   %eax
  402dea:	ff 15 e0 81 40 00    	call   *0x4081e0
  402df0:	83 c4 0c             	add    $0xc,%esp
  402df3:	8d 45 80             	lea    -0x80(%ebp),%eax
  402df6:	50                   	push   %eax
  402df7:	ff 75 08             	pushl  0x8(%ebp)
  402dfa:	ff 15 60 82 40 00    	call   *0x408260
  402e00:	8d 45 80             	lea    -0x80(%ebp),%eax
  402e03:	50                   	push   %eax
  402e04:	68 06 04 00 00       	push   $0x406
  402e09:	ff 75 08             	pushl  0x8(%ebp)
  402e0c:	e8 24 2b 00 00       	call   0x405935
  402e11:	33 c0                	xor    %eax,%eax
  402e13:	c9                   	leave  
  402e14:	c2 10 00             	ret    $0x10
  402e17:	8b 0d d0 8e 41 00    	mov    0x418ed0,%ecx
  402e1d:	a1 e0 8e 41 00       	mov    0x418ee0,%eax
  402e22:	3b c8                	cmp    %eax,%ecx
  402e24:	7c 02                	jl     0x402e28
  402e26:	8b c8                	mov    %eax,%ecx
  402e28:	50                   	push   %eax
  402e29:	6a 64                	push   $0x64
  402e2b:	51                   	push   %ecx
  402e2c:	ff 15 54 81 40 00    	call   *0x408154
  402e32:	c3                   	ret    
  402e33:	55                   	push   %ebp
  402e34:	8b ec                	mov    %esp,%ebp
  402e36:	81 ec 80 00 00 00    	sub    $0x80,%esp
  402e3c:	56                   	push   %esi
  402e3d:	33 f6                	xor    %esi,%esi
  402e3f:	39 75 08             	cmp    %esi,0x8(%ebp)
  402e42:	74 18                	je     0x402e5c
  402e44:	a1 dc 8e 41 00       	mov    0x418edc,%eax
  402e49:	3b c6                	cmp    %esi,%eax
  402e4b:	74 07                	je     0x402e54
  402e4d:	50                   	push   %eax
  402e4e:	ff 15 54 82 40 00    	call   *0x408254
  402e54:	89 35 dc 8e 41 00    	mov    %esi,0x418edc
  402e5a:	eb 76                	jmp    0x402ed2
  402e5c:	39 35 dc 8e 41 00    	cmp    %esi,0x418edc
  402e62:	74 08                	je     0x402e6c
  402e64:	56                   	push   %esi
  402e65:	e8 be 37 00 00       	call   0x406628
  402e6a:	eb 66                	jmp    0x402ed2
  402e6c:	ff 15 80 80 40 00    	call   *0x408080
  402e72:	3b 05 4c a2 42 00    	cmp    0x42a24c,%eax
  402e78:	76 58                	jbe    0x402ed2
  402e7a:	39 35 48 a2 42 00    	cmp    %esi,0x42a248
  402e80:	74 2d                	je     0x402eaf
  402e82:	f6 05 f4 a2 42 00 01 	testb  $0x1,0x42a2f4
  402e89:	74 47                	je     0x402ed2
  402e8b:	e8 87 ff ff ff       	call   0x402e17
  402e90:	50                   	push   %eax
  402e91:	8d 45 80             	lea    -0x80(%ebp),%eax
  402e94:	68 80 a0 40 00       	push   $0x40a080
  402e99:	50                   	push   %eax
  402e9a:	ff 15 e0 81 40 00    	call   *0x4081e0
  402ea0:	83 c4 0c             	add    $0xc,%esp
  402ea3:	8d 45 80             	lea    -0x80(%ebp),%eax
  402ea6:	50                   	push   %eax
  402ea7:	56                   	push   %esi
  402ea8:	e8 c4 24 00 00       	call   0x405371
  402ead:	eb 23                	jmp    0x402ed2
  402eaf:	56                   	push   %esi
  402eb0:	68 98 2d 40 00       	push   $0x402d98
  402eb5:	56                   	push   %esi
  402eb6:	6a 6f                	push   $0x6f
  402eb8:	ff 35 40 a2 42 00    	pushl  0x42a240
  402ebe:	ff 15 90 82 40 00    	call   *0x408290
  402ec4:	6a 05                	push   $0x5
  402ec6:	50                   	push   %eax
  402ec7:	a3 dc 8e 41 00       	mov    %eax,0x418edc
  402ecc:	ff 15 68 82 40 00    	call   *0x408268
  402ed2:	5e                   	pop    %esi
  402ed3:	c9                   	leave  
  402ed4:	c3                   	ret    
  402ed5:	55                   	push   %ebp
  402ed6:	8b ec                	mov    %esp,%ebp
  402ed8:	81 ec 2c 02 00 00    	sub    $0x22c,%esp
  402ede:	53                   	push   %ebx
  402edf:	56                   	push   %esi
  402ee0:	33 db                	xor    %ebx,%ebx
  402ee2:	57                   	push   %edi
  402ee3:	89 5d fc             	mov    %ebx,-0x4(%ebp)
  402ee6:	89 5d f8             	mov    %ebx,-0x8(%ebp)
  402ee9:	ff 15 80 80 40 00    	call   *0x408080
  402eef:	be 00 88 43 00       	mov    $0x438800,%esi
  402ef4:	68 00 04 00 00       	push   $0x400
  402ef9:	05 e8 03 00 00       	add    $0x3e8,%eax
  402efe:	56                   	push   %esi
  402eff:	53                   	push   %ebx
  402f00:	a3 4c a2 42 00       	mov    %eax,0x42a24c
  402f05:	ff 15 94 80 40 00    	call   *0x408094
  402f0b:	6a 03                	push   $0x3
  402f0d:	68 00 00 00 80       	push   $0x80000000
  402f12:	56                   	push   %esi
  402f13:	e8 cf 2e 00 00       	call   0x405de7
  402f18:	8b f8                	mov    %eax,%edi
  402f1a:	83 ff ff             	cmp    $0xffffffff,%edi
  402f1d:	89 3d 18 a0 40 00    	mov    %edi,0x40a018
  402f23:	75 0a                	jne    0x402f2f
  402f25:	b8 b8 a2 40 00       	mov    $0x40a2b8,%eax
  402f2a:	e9 45 02 00 00       	jmp    0x403174
  402f2f:	56                   	push   %esi
  402f30:	be 00 68 43 00       	mov    $0x436800,%esi
  402f35:	56                   	push   %esi
  402f36:	e8 d7 32 00 00       	call   0x406212
  402f3b:	56                   	push   %esi
  402f3c:	e8 d1 2c 00 00       	call   0x405c12
  402f41:	50                   	push   %eax
  402f42:	68 00 90 43 00       	push   $0x439000
  402f47:	e8 c6 32 00 00       	call   0x406212
  402f4c:	53                   	push   %ebx
  402f4d:	57                   	push   %edi
  402f4e:	ff 15 88 80 40 00    	call   *0x408088
  402f54:	3b c3                	cmp    %ebx,%eax
  402f56:	a3 e0 8e 41 00       	mov    %eax,0x418ee0
  402f5b:	8b f0                	mov    %eax,%esi
  402f5d:	0f 8e ea 00 00 00    	jle    0x40304d
  402f63:	a1 54 a2 42 00       	mov    0x42a254,%eax
  402f68:	8b fe                	mov    %esi,%edi
  402f6a:	f7 d8                	neg    %eax
  402f6c:	1b c0                	sbb    %eax,%eax
  402f6e:	25 00 7e 00 00       	and    $0x7e00,%eax
  402f73:	05 00 02 00 00       	add    $0x200,%eax
  402f78:	3b f0                	cmp    %eax,%esi
  402f7a:	7c 02                	jl     0x402f7e
  402f7c:	8b f8                	mov    %eax,%edi
  402f7e:	57                   	push   %edi
  402f7f:	68 e8 8e 41 00       	push   $0x418ee8
  402f84:	e8 63 04 00 00       	call   0x4033ec
  402f89:	85 c0                	test   %eax,%eax
  402f8b:	0f 84 57 01 00 00    	je     0x4030e8
  402f91:	39 1d 54 a2 42 00    	cmp    %ebx,0x42a254
  402f97:	75 7e                	jne    0x403017
  402f99:	6a 1c                	push   $0x1c
  402f9b:	8d 45 dc             	lea    -0x24(%ebp),%eax
  402f9e:	68 e8 8e 41 00       	push   $0x418ee8
  402fa3:	50                   	push   %eax
  402fa4:	e8 f9 2d 00 00       	call   0x405da2
  402fa9:	8b 45 dc             	mov    -0x24(%ebp),%eax
  402fac:	a9 f0 ff ff ff       	test   $0xfffffff0,%eax
  402fb1:	75 71                	jne    0x403024
  402fb3:	81 7d e0 ef be ad de 	cmpl   $0xdeadbeef,-0x20(%ebp)
  402fba:	75 68                	jne    0x403024
  402fbc:	81 7d ec 49 6e 73 74 	cmpl   $0x74736e49,-0x14(%ebp)
  402fc3:	75 5f                	jne    0x403024
  402fc5:	81 7d e8 73 6f 66 74 	cmpl   $0x74666f73,-0x18(%ebp)
  402fcc:	75 56                	jne    0x403024
  402fce:	81 7d e4 4e 75 6c 6c 	cmpl   $0x6c6c754e,-0x1c(%ebp)
  402fd5:	75 4d                	jne    0x403024
  402fd7:	09 45 08             	or     %eax,0x8(%ebp)
  402fda:	8b 45 08             	mov    0x8(%ebp),%eax
  402fdd:	8b 0d d0 8e 41 00    	mov    0x418ed0,%ecx
  402fe3:	83 e0 02             	and    $0x2,%eax
  402fe6:	09 05 e0 a2 42 00    	or     %eax,0x42a2e0
  402fec:	8b 45 f4             	mov    -0xc(%ebp),%eax
  402fef:	3b c6                	cmp    %esi,%eax
  402ff1:	89 0d 54 a2 42 00    	mov    %ecx,0x42a254
  402ff7:	0f 8f 2f 01 00 00    	jg     0x40312c
  402ffd:	f6 45 08 08          	testb  $0x8,0x8(%ebp)
  403001:	75 06                	jne    0x403009
  403003:	f6 45 08 04          	testb  $0x4,0x8(%ebp)
  403007:	75 44                	jne    0x40304d
  403009:	ff 45 f8             	incl   -0x8(%ebp)
  40300c:	8d 70 fc             	lea    -0x4(%eax),%esi
  40300f:	3b fe                	cmp    %esi,%edi
  403011:	76 11                	jbe    0x403024
  403013:	8b fe                	mov    %esi,%edi
  403015:	eb 0d                	jmp    0x403024
  403017:	f6 45 08 02          	testb  $0x2,0x8(%ebp)
  40301b:	75 07                	jne    0x403024
  40301d:	53                   	push   %ebx
  40301e:	e8 10 fe ff ff       	call   0x402e33
  403023:	59                   	pop    %ecx
  403024:	3b 35 e0 8e 41 00    	cmp    0x418ee0,%esi
  40302a:	7d 11                	jge    0x40303d
  40302c:	57                   	push   %edi
  40302d:	68 e8 8e 41 00       	push   $0x418ee8
  403032:	ff 75 fc             	pushl  -0x4(%ebp)
  403035:	e8 63 36 00 00       	call   0x40669d
  40303a:	89 45 fc             	mov    %eax,-0x4(%ebp)
  40303d:	01 3d d0 8e 41 00    	add    %edi,0x418ed0
  403043:	2b f7                	sub    %edi,%esi
  403045:	3b f3                	cmp    %ebx,%esi
  403047:	0f 8f 16 ff ff ff    	jg     0x402f63
  40304d:	6a 01                	push   $0x1
  40304f:	e8 df fd ff ff       	call   0x402e33
  403054:	39 1d 54 a2 42 00    	cmp    %ebx,0x42a254
  40305a:	59                   	pop    %ecx
  40305b:	0f 84 cb 00 00 00    	je     0x40312c
  403061:	39 5d f8             	cmp    %ebx,-0x8(%ebp)
  403064:	74 2a                	je     0x403090
  403066:	ff 35 d0 8e 41 00    	pushl  0x418ed0
  40306c:	e8 91 03 00 00       	call   0x403402
  403071:	8d 45 08             	lea    0x8(%ebp),%eax
  403074:	6a 04                	push   $0x4
  403076:	50                   	push   %eax
  403077:	e8 70 03 00 00       	call   0x4033ec
  40307c:	85 c0                	test   %eax,%eax
  40307e:	0f 84 a8 00 00 00    	je     0x40312c
  403084:	8b 45 fc             	mov    -0x4(%ebp),%eax
  403087:	3b 45 08             	cmp    0x8(%ebp),%eax
  40308a:	0f 85 9c 00 00 00    	jne    0x40312c
  403090:	ff 75 f0             	pushl  -0x10(%ebp)
  403093:	6a 40                	push   $0x40
  403095:	ff 15 0c 81 40 00    	call   *0x40810c
  40309b:	b9 48 ce 40 00       	mov    $0x40ce48,%ecx
  4030a0:	8b f0                	mov    %eax,%esi
  4030a2:	e8 64 36 00 00       	call   0x40670b
  4030a7:	8d 85 d4 fd ff ff    	lea    -0x22c(%ebp),%eax
  4030ad:	68 00 78 43 00       	push   $0x437800
  4030b2:	50                   	push   %eax
  4030b3:	e8 5e 2d 00 00       	call   0x405e16
  4030b8:	53                   	push   %ebx
  4030b9:	68 00 01 00 04       	push   $0x4000100
  4030be:	6a 02                	push   $0x2
  4030c0:	53                   	push   %ebx
  4030c1:	53                   	push   %ebx
  4030c2:	8d 85 d4 fd ff ff    	lea    -0x22c(%ebp),%eax
  4030c8:	68 00 00 00 c0       	push   $0xc0000000
  4030cd:	50                   	push   %eax
  4030ce:	ff 15 84 80 40 00    	call   *0x408084
  4030d4:	83 f8 ff             	cmp    $0xffffffff,%eax
  4030d7:	a3 1c a0 40 00       	mov    %eax,0x40a01c
  4030dc:	75 14                	jne    0x4030f2
  4030de:	b8 30 a2 40 00       	mov    $0x40a230,%eax
  4030e3:	e9 8c 00 00 00       	jmp    0x403174
  4030e8:	6a 01                	push   $0x1
  4030ea:	e8 44 fd ff ff       	call   0x402e33
  4030ef:	59                   	pop    %ecx
  4030f0:	eb 3a                	jmp    0x40312c
  4030f2:	a1 54 a2 42 00       	mov    0x42a254,%eax
  4030f7:	83 c0 1c             	add    $0x1c,%eax
  4030fa:	50                   	push   %eax
  4030fb:	e8 02 03 00 00       	call   0x403402
  403100:	8b 4d dc             	mov    -0x24(%ebp),%ecx
  403103:	ff 75 f0             	pushl  -0x10(%ebp)
  403106:	f7 d1                	not    %ecx
  403108:	83 e1 04             	and    $0x4,%ecx
  40310b:	a3 e4 8e 41 00       	mov    %eax,0x418ee4
  403110:	2b c1                	sub    %ecx,%eax
  403112:	8b 4d f4             	mov    -0xc(%ebp),%ecx
  403115:	56                   	push   %esi
  403116:	53                   	push   %ebx
  403117:	8d 44 08 e4          	lea    -0x1c(%eax,%ecx,1),%eax
  40311b:	6a ff                	push   $0xffffffff
  40311d:	a3 d8 8e 41 00       	mov    %eax,0x418ed8
  403122:	e8 54 00 00 00       	call   0x40317b
  403127:	3b 45 f0             	cmp    -0x10(%ebp),%eax
  40312a:	74 07                	je     0x403133
  40312c:	b8 98 a0 40 00       	mov    $0x40a098,%eax
  403131:	eb 41                	jmp    0x403174
  403133:	f6 45 dc 01          	testb  $0x1,-0x24(%ebp)
  403137:	89 35 50 a2 42 00    	mov    %esi,0x42a250
  40313d:	8b 06                	mov    (%esi),%eax
  40313f:	a3 58 a2 42 00       	mov    %eax,0x42a258
  403144:	74 06                	je     0x40314c
  403146:	ff 05 5c a2 42 00    	incl   0x42a25c
  40314c:	6a 08                	push   $0x8
  40314e:	8d 46 44             	lea    0x44(%esi),%eax
  403151:	59                   	pop    %ecx
  403152:	83 e8 08             	sub    $0x8,%eax
  403155:	01 30                	add    %esi,(%eax)
  403157:	49                   	dec    %ecx
  403158:	75 f8                	jne    0x403152
  40315a:	a1 d4 8e 41 00       	mov    0x418ed4,%eax
  40315f:	6a 40                	push   $0x40
  403161:	89 46 3c             	mov    %eax,0x3c(%esi)
  403164:	83 c6 04             	add    $0x4,%esi
  403167:	56                   	push   %esi
  403168:	68 60 a2 42 00       	push   $0x42a260
  40316d:	e8 30 2c 00 00       	call   0x405da2
  403172:	33 c0                	xor    %eax,%eax
  403174:	5f                   	pop    %edi
  403175:	5e                   	pop    %esi
  403176:	5b                   	pop    %ebx
  403177:	c9                   	leave  
  403178:	c2 04 00             	ret    $0x4
  40317b:	55                   	push   %ebp
  40317c:	8b ec                	mov    %esp,%ebp
  40317e:	51                   	push   %ecx
  40317f:	8b 45 08             	mov    0x8(%ebp),%eax
  403182:	53                   	push   %ebx
  403183:	56                   	push   %esi
  403184:	33 f6                	xor    %esi,%esi
  403186:	3b c6                	cmp    %esi,%eax
  403188:	7c 1c                	jl     0x4031a6
  40318a:	8b 0d 98 a2 42 00    	mov    0x42a298,%ecx
  403190:	56                   	push   %esi
  403191:	03 c1                	add    %ecx,%eax
  403193:	56                   	push   %esi
  403194:	50                   	push   %eax
  403195:	a3 d4 8e 41 00       	mov    %eax,0x418ed4
  40319a:	ff 35 1c a0 40 00    	pushl  0x40a01c
  4031a0:	ff 15 48 81 40 00    	call   *0x408148
  4031a6:	6a 04                	push   $0x4
  4031a8:	e8 d6 00 00 00       	call   0x403283
  4031ad:	3b c6                	cmp    %esi,%eax
  4031af:	0f 8c c8 00 00 00    	jl     0x40327d
  4031b5:	8d 45 08             	lea    0x8(%ebp),%eax
  4031b8:	6a 04                	push   $0x4
  4031ba:	50                   	push   %eax
  4031bb:	ff 35 1c a0 40 00    	pushl  0x40a01c
  4031c1:	e8 a4 2c 00 00       	call   0x405e6a
  4031c6:	85 c0                	test   %eax,%eax
  4031c8:	0f 84 9f 00 00 00    	je     0x40326d
  4031ce:	ff 75 08             	pushl  0x8(%ebp)
  4031d1:	83 05 d4 8e 41 00 04 	addl   $0x4,0x418ed4
  4031d8:	e8 a6 00 00 00       	call   0x403283
  4031dd:	8b d8                	mov    %eax,%ebx
  4031df:	3b de                	cmp    %esi,%ebx
  4031e1:	0f 8c 94 00 00 00    	jl     0x40327b
  4031e7:	39 75 10             	cmp    %esi,0x10(%ebp)
  4031ea:	75 5d                	jne    0x403249
  4031ec:	39 75 08             	cmp    %esi,0x8(%ebp)
  4031ef:	0f 8e 86 00 00 00    	jle    0x40327b
  4031f5:	be d0 4e 41 00       	mov    $0x414ed0,%esi
  4031fa:	81 7d 08 00 40 00 00 	cmpl   $0x4000,0x8(%ebp)
  403201:	8b 45 08             	mov    0x8(%ebp),%eax
  403204:	7c 05                	jl     0x40320b
  403206:	b8 00 40 00 00       	mov    $0x4000,%eax
  40320b:	50                   	push   %eax
  40320c:	56                   	push   %esi
  40320d:	ff 35 1c a0 40 00    	pushl  0x40a01c
  403213:	89 45 fc             	mov    %eax,-0x4(%ebp)
  403216:	e8 4f 2c 00 00       	call   0x405e6a
  40321b:	85 c0                	test   %eax,%eax
  40321d:	74 4e                	je     0x40326d
  40321f:	ff 75 fc             	pushl  -0x4(%ebp)
  403222:	56                   	push   %esi
  403223:	ff 75 0c             	pushl  0xc(%ebp)
  403226:	e8 6e 2c 00 00       	call   0x405e99
  40322b:	85 c0                	test   %eax,%eax
  40322d:	74 16                	je     0x403245
  40322f:	8b 45 fc             	mov    -0x4(%ebp),%eax
  403232:	29 45 08             	sub    %eax,0x8(%ebp)
  403235:	01 05 d4 8e 41 00    	add    %eax,0x418ed4
  40323b:	03 d8                	add    %eax,%ebx
  40323d:	83 7d 08 00          	cmpl   $0x0,0x8(%ebp)
  403241:	7f b7                	jg     0x4031fa
  403243:	eb 36                	jmp    0x40327b
  403245:	6a fe                	push   $0xfffffffe
  403247:	eb 26                	jmp    0x40326f
  403249:	8b 45 08             	mov    0x8(%ebp),%eax
  40324c:	3b 45 14             	cmp    0x14(%ebp),%eax
  40324f:	7c 03                	jl     0x403254
  403251:	8b 45 14             	mov    0x14(%ebp),%eax
  403254:	8d 4d fc             	lea    -0x4(%ebp),%ecx
  403257:	56                   	push   %esi
  403258:	51                   	push   %ecx
  403259:	50                   	push   %eax
  40325a:	ff 75 10             	pushl  0x10(%ebp)
  40325d:	ff 35 1c a0 40 00    	pushl  0x40a01c
  403263:	ff 15 4c 81 40 00    	call   *0x40814c
  403269:	85 c0                	test   %eax,%eax
  40326b:	75 05                	jne    0x403272
  40326d:	6a fd                	push   $0xfffffffd
  40326f:	58                   	pop    %eax
  403270:	eb 0b                	jmp    0x40327d
  403272:	8b 5d fc             	mov    -0x4(%ebp),%ebx
  403275:	01 1d d4 8e 41 00    	add    %ebx,0x418ed4
  40327b:	8b c3                	mov    %ebx,%eax
  40327d:	5e                   	pop    %esi
  40327e:	5b                   	pop    %ebx
  40327f:	c9                   	leave  
  403280:	c2 10 00             	ret    $0x10
  403283:	53                   	push   %ebx
  403284:	55                   	push   %ebp
  403285:	56                   	push   %esi
  403286:	8b 35 d4 8e 41 00    	mov    0x418ed4,%esi
  40328c:	2b 35 40 ce 40 00    	sub    0x40ce40,%esi
  403292:	57                   	push   %edi
  403293:	03 74 24 14          	add    0x14(%esp),%esi
  403297:	ff 15 80 80 40 00    	call   *0x408080
  40329d:	33 db                	xor    %ebx,%ebx
  40329f:	05 f4 01 00 00       	add    $0x1f4,%eax
  4032a4:	3b f3                	cmp    %ebx,%esi
  4032a6:	a3 4c a2 42 00       	mov    %eax,0x42a24c
  4032ab:	0f 8e 2a 01 00 00    	jle    0x4033db
  4032b1:	ff 35 e4 8e 41 00    	pushl  0x418ee4
  4032b7:	e8 46 01 00 00       	call   0x403402
  4032bc:	53                   	push   %ebx
  4032bd:	53                   	push   %ebx
  4032be:	ff 35 40 ce 40 00    	pushl  0x40ce40
  4032c4:	ff 35 1c a0 40 00    	pushl  0x40a01c
  4032ca:	ff 15 48 81 40 00    	call   *0x408148
  4032d0:	89 35 e0 8e 41 00    	mov    %esi,0x418ee0
  4032d6:	89 1d d0 8e 41 00    	mov    %ebx,0x418ed0
  4032dc:	bd d0 ce 40 00       	mov    $0x40ced0,%ebp
  4032e1:	a1 d8 8e 41 00       	mov    0x418ed8,%eax
  4032e6:	bf 00 40 00 00       	mov    $0x4000,%edi
  4032eb:	2b 05 e4 8e 41 00    	sub    0x418ee4,%eax
  4032f1:	3b c7                	cmp    %edi,%eax
  4032f3:	7f 02                	jg     0x4032f7
  4032f5:	8b f8                	mov    %eax,%edi
  4032f7:	be d0 4e 41 00       	mov    $0x414ed0,%esi
  4032fc:	57                   	push   %edi
  4032fd:	56                   	push   %esi
  4032fe:	e8 e9 00 00 00       	call   0x4033ec
  403303:	85 c0                	test   %eax,%eax
  403305:	0f 84 c2 00 00 00    	je     0x4033cd
  40330b:	01 3d e4 8e 41 00    	add    %edi,0x418ee4
  403311:	89 35 60 ce 40 00    	mov    %esi,0x40ce60
  403317:	89 3d 64 ce 40 00    	mov    %edi,0x40ce64
  40331d:	39 1d 50 a2 42 00    	cmp    %ebx,0x42a250
  403323:	74 29                	je     0x40334e
  403325:	39 1d e0 a2 42 00    	cmp    %ebx,0x42a2e0
  40332b:	75 21                	jne    0x40334e
  40332d:	a1 e0 8e 41 00       	mov    0x418ee0,%eax
  403332:	53                   	push   %ebx
  403333:	2b 05 d4 8e 41 00    	sub    0x418ed4,%eax
  403339:	2b 44 24 18          	sub    0x18(%esp),%eax
  40333d:	03 05 40 ce 40 00    	add    0x40ce40,%eax
  403343:	a3 d0 8e 41 00       	mov    %eax,0x418ed0
  403348:	e8 e6 fa ff ff       	call   0x402e33
  40334d:	59                   	pop    %ecx
  40334e:	b9 48 ce 40 00       	mov    $0x40ce48,%ecx
  403353:	89 2d 68 ce 40 00    	mov    %ebp,0x40ce68
  403359:	c7 05 6c ce 40 00 00 	movl   $0x8000,0x40ce6c
  403360:	80 00 00 
  403363:	e8 c3 33 00 00       	call   0x40672b
  403368:	85 c0                	test   %eax,%eax
  40336a:	7c 6a                	jl     0x4033d6
  40336c:	8b 35 68 ce 40 00    	mov    0x40ce68,%esi
  403372:	2b f5                	sub    %ebp,%esi
  403374:	74 21                	je     0x403397
  403376:	56                   	push   %esi
  403377:	55                   	push   %ebp
  403378:	ff 35 1c a0 40 00    	pushl  0x40a01c
  40337e:	e8 16 2b 00 00       	call   0x405e99
  403383:	85 c0                	test   %eax,%eax
  403385:	74 4b                	je     0x4033d2
  403387:	01 35 40 ce 40 00    	add    %esi,0x40ce40
  40338d:	39 1d 64 ce 40 00    	cmp    %ebx,0x40ce64
  403393:	75 88                	jne    0x40331d
  403395:	eb 0c                	jmp    0x4033a3
  403397:	39 1d 64 ce 40 00    	cmp    %ebx,0x40ce64
  40339d:	75 37                	jne    0x4033d6
  40339f:	3b fb                	cmp    %ebx,%edi
  4033a1:	74 33                	je     0x4033d6
  4033a3:	a1 d4 8e 41 00       	mov    0x418ed4,%eax
  4033a8:	8b c8                	mov    %eax,%ecx
  4033aa:	2b 0d 40 ce 40 00    	sub    0x40ce40,%ecx
  4033b0:	03 4c 24 14          	add    0x14(%esp),%ecx
  4033b4:	85 c9                	test   %ecx,%ecx
  4033b6:	0f 8f 25 ff ff ff    	jg     0x4032e1
  4033bc:	53                   	push   %ebx
  4033bd:	53                   	push   %ebx
  4033be:	50                   	push   %eax
  4033bf:	ff 35 1c a0 40 00    	pushl  0x40a01c
  4033c5:	ff 15 48 81 40 00    	call   *0x408148
  4033cb:	eb 0e                	jmp    0x4033db
  4033cd:	83 c8 ff             	or     $0xffffffff,%eax
  4033d0:	eb 13                	jmp    0x4033e5
  4033d2:	6a fe                	push   $0xfffffffe
  4033d4:	eb 02                	jmp    0x4033d8
  4033d6:	6a fd                	push   $0xfffffffd
  4033d8:	58                   	pop    %eax
  4033d9:	eb 0a                	jmp    0x4033e5
  4033db:	6a 01                	push   $0x1
  4033dd:	e8 51 fa ff ff       	call   0x402e33
  4033e2:	59                   	pop    %ecx
  4033e3:	33 c0                	xor    %eax,%eax
  4033e5:	5f                   	pop    %edi
  4033e6:	5e                   	pop    %esi
  4033e7:	5d                   	pop    %ebp
  4033e8:	5b                   	pop    %ebx
  4033e9:	c2 04 00             	ret    $0x4
  4033ec:	ff 74 24 08          	pushl  0x8(%esp)
  4033f0:	ff 74 24 08          	pushl  0x8(%esp)
  4033f4:	ff 35 18 a0 40 00    	pushl  0x40a018
  4033fa:	e8 6b 2a 00 00       	call   0x405e6a
  4033ff:	c2 08 00             	ret    $0x8
  403402:	6a 00                	push   $0x0
  403404:	6a 00                	push   $0x0
  403406:	ff 74 24 0c          	pushl  0xc(%esp)
  40340a:	ff 35 18 a0 40 00    	pushl  0x40a018
  403410:	ff 15 48 81 40 00    	call   *0x408148
  403416:	c2 04 00             	ret    $0x4
  403419:	56                   	push   %esi
  40341a:	be 00 78 43 00       	mov    $0x437800,%esi
  40341f:	56                   	push   %esi
  403420:	e8 81 30 00 00       	call   0x4064a6
  403425:	56                   	push   %esi
  403426:	e8 12 28 00 00       	call   0x405c3d
  40342b:	85 c0                	test   %eax,%eax
  40342d:	75 02                	jne    0x403431
  40342f:	5e                   	pop    %esi
  403430:	c3                   	ret    
  403431:	56                   	push   %esi
  403432:	e8 8f 27 00 00       	call   0x405bc6
  403437:	56                   	push   %esi
  403438:	e8 80 24 00 00       	call   0x4058bd
  40343d:	56                   	push   %esi
  40343e:	68 00 70 43 00       	push   $0x437000
  403443:	e8 ce 29 00 00       	call   0x405e16
  403448:	5e                   	pop    %esi
  403449:	c3                   	ret    
  40344a:	81 ec d4 02 00 00    	sub    $0x2d4,%esp
  403450:	53                   	push   %ebx
  403451:	56                   	push   %esi
  403452:	57                   	push   %edi
  403453:	6a 20                	push   $0x20
  403455:	5f                   	pop    %edi
  403456:	33 db                	xor    %ebx,%ebx
  403458:	68 01 80 00 00       	push   $0x8001
  40345d:	89 5c 24 14          	mov    %ebx,0x14(%esp)
  403461:	c7 44 24 10 30 a2 40 	movl   $0x40a230,0x10(%esp)
  403468:	00 
  403469:	89 5c 24 1c          	mov    %ebx,0x1c(%esp)
  40346d:	ff 15 b4 80 40 00    	call   *0x4080b4
  403473:	ff 15 b0 80 40 00    	call   *0x4080b0
  403479:	66 3d 06 00          	cmp    $0x6,%ax
  40347d:	74 11                	je     0x403490
  40347f:	53                   	push   %ebx
  403480:	e8 67 31 00 00       	call   0x4065ec
  403485:	3b c3                	cmp    %ebx,%eax
  403487:	74 07                	je     0x403490
  403489:	68 00 0c 00 00       	push   $0xc00
  40348e:	ff d0                	call   *%eax
  403490:	be b8 82 40 00       	mov    $0x4082b8,%esi
  403495:	56                   	push   %esi
  403496:	e8 e1 30 00 00       	call   0x40657c
  40349b:	56                   	push   %esi
  40349c:	ff 15 5c 81 40 00    	call   *0x40815c
  4034a2:	8d 74 06 01          	lea    0x1(%esi,%eax,1),%esi
  4034a6:	80 3e 00             	cmpb   $0x0,(%esi)
  4034a9:	75 ea                	jne    0x403495
  4034ab:	55                   	push   %ebp
  4034ac:	6a 09                	push   $0x9
  4034ae:	e8 39 31 00 00       	call   0x4065ec
  4034b3:	6a 07                	push   $0x7
  4034b5:	e8 32 31 00 00       	call   0x4065ec
  4034ba:	a3 44 a2 42 00       	mov    %eax,0x42a244
  4034bf:	ff 15 3c 80 40 00    	call   *0x40803c
  4034c5:	53                   	push   %ebx
  4034c6:	ff 15 a4 82 40 00    	call   *0x4082a4
  4034cc:	a3 f8 a2 42 00       	mov    %eax,0x42a2f8
  4034d1:	53                   	push   %ebx
  4034d2:	8d 44 24 34          	lea    0x34(%esp),%eax
  4034d6:	68 b4 02 00 00       	push   $0x2b4
  4034db:	50                   	push   %eax
  4034dc:	53                   	push   %ebx
  4034dd:	68 e8 16 42 00       	push   $0x4216e8
  4034e2:	ff 15 88 81 40 00    	call   *0x408188
  4034e8:	68 84 a3 40 00       	push   $0x40a384
  4034ed:	68 40 92 42 00       	push   $0x429240
  4034f2:	e8 1b 2d 00 00       	call   0x406212
  4034f7:	ff 15 ac 80 40 00    	call   *0x4080ac
  4034fd:	bd 00 50 43 00       	mov    $0x435000,%ebp
  403502:	50                   	push   %eax
  403503:	55                   	push   %ebp
  403504:	e8 09 2d 00 00       	call   0x406212
  403509:	53                   	push   %ebx
  40350a:	ff 15 74 81 40 00    	call   *0x408174
  403510:	66 83 3d 00 50 43 00 	cmpw   $0x22,0x435000
  403517:	22 
  403518:	a3 40 a2 42 00       	mov    %eax,0x42a240
  40351d:	8b c5                	mov    %ebp,%eax
  40351f:	75 08                	jne    0x403529
  403521:	6a 22                	push   $0x22
  403523:	b8 02 50 43 00       	mov    $0x435002,%eax
  403528:	5f                   	pop    %edi
  403529:	57                   	push   %edi
  40352a:	50                   	push   %eax
  40352b:	e8 c3 26 00 00       	call   0x405bf3
  403530:	50                   	push   %eax
  403531:	ff 15 4c 82 40 00    	call   *0x40824c
  403537:	8b c8                	mov    %eax,%ecx
  403539:	89 4c 24 18          	mov    %ecx,0x18(%esp)
  40353d:	66 8b 01             	mov    (%ecx),%ax
  403540:	66 3b c3             	cmp    %bx,%ax
  403543:	0f 84 11 01 00 00    	je     0x40365a
  403549:	6a 20                	push   $0x20
  40354b:	5b                   	pop    %ebx
  40354c:	66 3b c3             	cmp    %bx,%ax
  40354f:	75 07                	jne    0x403558
  403551:	41                   	inc    %ecx
  403552:	41                   	inc    %ecx
  403553:	66 39 19             	cmp    %bx,(%ecx)
  403556:	74 f9                	je     0x403551
  403558:	66 83 39 22          	cmpw   $0x22,(%ecx)
  40355c:	75 05                	jne    0x403563
  40355e:	41                   	inc    %ecx
  40355f:	6a 22                	push   $0x22
  403561:	41                   	inc    %ecx
  403562:	5b                   	pop    %ebx
  403563:	66 83 39 2f          	cmpw   $0x2f,(%ecx)
  403567:	0f 85 b9 00 00 00    	jne    0x403626
  40356d:	41                   	inc    %ecx
  40356e:	41                   	inc    %ecx
  40356f:	66 83 39 53          	cmpw   $0x53,(%ecx)
  403573:	75 19                	jne    0x40358e
  403575:	66 8b 41 02          	mov    0x2(%ecx),%ax
  403579:	66 3d 20 00          	cmp    $0x20,%ax
  40357d:	74 05                	je     0x403584
  40357f:	66 85 c0             	test   %ax,%ax
  403582:	75 0a                	jne    0x40358e
  403584:	c7 05 e0 a2 42 00 01 	movl   $0x1,0x42a2e0
  40358b:	00 00 00 
  40358e:	0f b7 05 7e a3 40 00 	movzwl 0x40a37e,%eax
  403595:	99                   	cltd   
  403596:	0f a4 c2 10          	shld   $0x10,%eax,%edx
  40359a:	c1 e0 10             	shl    $0x10,%eax
  40359d:	8b f8                	mov    %eax,%edi
  40359f:	33 f6                	xor    %esi,%esi
  4035a1:	0f b7 05 7c a3 40 00 	movzwl 0x40a37c,%eax
  4035a8:	99                   	cltd   
  4035a9:	0f b7 15 78 a3 40 00 	movzwl 0x40a378,%edx
  4035b0:	0b f8                	or     %eax,%edi
  4035b2:	0f b7 05 7a a3 40 00 	movzwl 0x40a37a,%eax
  4035b9:	c1 e0 10             	shl    $0x10,%eax
  4035bc:	0b c2                	or     %edx,%eax
  4035be:	99                   	cltd   
  4035bf:	0b f0                	or     %eax,%esi
  4035c1:	8b 01                	mov    (%ecx),%eax
  4035c3:	0b fa                	or     %edx,%edi
  4035c5:	3b c6                	cmp    %esi,%eax
  4035c7:	75 1b                	jne    0x4035e4
  4035c9:	8b 41 04             	mov    0x4(%ecx),%eax
  4035cc:	3b c7                	cmp    %edi,%eax
  4035ce:	75 14                	jne    0x4035e4
  4035d0:	66 8b 41 08          	mov    0x8(%ecx),%ax
  4035d4:	66 3d 20 00          	cmp    $0x20,%ax
  4035d8:	74 05                	je     0x4035df
  4035da:	66 85 c0             	test   %ax,%ax
  4035dd:	75 05                	jne    0x4035e4
  4035df:	83 4c 24 1c 04       	orl    $0x4,0x1c(%esp)
  4035e4:	0f b7 05 72 a3 40 00 	movzwl 0x40a372,%eax
  4035eb:	99                   	cltd   
  4035ec:	0f a4 c2 10          	shld   $0x10,%eax,%edx
  4035f0:	c1 e0 10             	shl    $0x10,%eax
  4035f3:	8b f8                	mov    %eax,%edi
  4035f5:	33 f6                	xor    %esi,%esi
  4035f7:	0f b7 05 70 a3 40 00 	movzwl 0x40a370,%eax
  4035fe:	99                   	cltd   
  4035ff:	0f b7 15 6c a3 40 00 	movzwl 0x40a36c,%edx
  403606:	0b f8                	or     %eax,%edi
  403608:	0f b7 05 6e a3 40 00 	movzwl 0x40a36e,%eax
  40360f:	c1 e0 10             	shl    $0x10,%eax
  403612:	0b c2                	or     %edx,%eax
  403614:	99                   	cltd   
  403615:	0b f0                	or     %eax,%esi
  403617:	8b 41 fc             	mov    -0x4(%ecx),%eax
  40361a:	0b fa                	or     %edx,%edi
  40361c:	3b c6                	cmp    %esi,%eax
  40361e:	75 06                	jne    0x403626
  403620:	8b 01                	mov    (%ecx),%eax
  403622:	3b c7                	cmp    %edi,%eax
  403624:	74 1f                	je     0x403645
  403626:	53                   	push   %ebx
  403627:	51                   	push   %ecx
  403628:	e8 c6 25 00 00       	call   0x405bf3
  40362d:	8b c8                	mov    %eax,%ecx
  40362f:	66 83 39 22          	cmpw   $0x22,(%ecx)
  403633:	75 02                	jne    0x403637
  403635:	41                   	inc    %ecx
  403636:	41                   	inc    %ecx
  403637:	66 8b 01             	mov    (%ecx),%ax
  40363a:	66 85 c0             	test   %ax,%ax
  40363d:	0f 85 06 ff ff ff    	jne    0x403549
  403643:	eb 13                	jmp    0x403658
  403645:	66 83 61 fc 00       	andw   $0x0,-0x4(%ecx)
  40364a:	83 c1 04             	add    $0x4,%ecx
  40364d:	51                   	push   %ecx
  40364e:	68 00 58 43 00       	push   $0x435800
  403653:	e8 ba 2b 00 00       	call   0x406212
  403658:	33 db                	xor    %ebx,%ebx
  40365a:	8b 3d a8 80 40 00    	mov    0x4080a8,%edi
  403660:	be 00 78 43 00       	mov    $0x437800,%esi
  403665:	56                   	push   %esi
  403666:	68 00 04 00 00       	push   $0x400
  40366b:	ff d7                	call   *%edi
  40366d:	e8 a7 fd ff ff       	call   0x403419
  403672:	85 c0                	test   %eax,%eax
  403674:	75 56                	jne    0x4036cc
  403676:	68 fb 03 00 00       	push   $0x3fb
  40367b:	56                   	push   %esi
  40367c:	ff 15 a4 80 40 00    	call   *0x4080a4
  403682:	68 60 a3 40 00       	push   $0x40a360
  403687:	56                   	push   %esi
  403688:	e8 a1 2b 00 00       	call   0x40622e
  40368d:	e8 87 fd ff ff       	call   0x403419
  403692:	85 c0                	test   %eax,%eax
  403694:	75 36                	jne    0x4036cc
  403696:	56                   	push   %esi
  403697:	68 fc 03 00 00       	push   $0x3fc
  40369c:	ff d7                	call   *%edi
  40369e:	68 58 a3 40 00       	push   $0x40a358
  4036a3:	56                   	push   %esi
  4036a4:	e8 85 2b 00 00       	call   0x40622e
  4036a9:	8b 3d a0 80 40 00    	mov    0x4080a0,%edi
  4036af:	56                   	push   %esi
  4036b0:	68 4c a3 40 00       	push   $0x40a34c
  4036b5:	ff d7                	call   *%edi
  4036b7:	56                   	push   %esi
  4036b8:	68 44 a3 40 00       	push   $0x40a344
  4036bd:	ff d7                	call   *%edi
  4036bf:	e8 55 fd ff ff       	call   0x403419
  4036c4:	85 c0                	test   %eax,%eax
  4036c6:	0f 84 cb 00 00 00    	je     0x403797
  4036cc:	68 00 70 43 00       	push   $0x437000
  4036d1:	ff 15 44 81 40 00    	call   *0x408144
  4036d7:	ff 74 24 1c          	pushl  0x1c(%esp)
  4036db:	e8 f5 f7 ff ff       	call   0x402ed5
  4036e0:	3b c3                	cmp    %ebx,%eax
  4036e2:	89 44 24 10          	mov    %eax,0x10(%esp)
  4036e6:	0f 85 ab 00 00 00    	jne    0x403797
  4036ec:	39 1d 5c a2 42 00    	cmp    %ebx,0x42a25c
  4036f2:	0f 84 8f 00 00 00    	je     0x403787
  4036f8:	53                   	push   %ebx
  4036f9:	55                   	push   %ebp
  4036fa:	e8 f4 24 00 00       	call   0x405bf3
  4036ff:	8b f8                	mov    %eax,%edi
  403701:	3b fd                	cmp    %ebp,%edi
  403703:	72 4c                	jb     0x403751
  403705:	0f b7 05 3e a3 40 00 	movzwl 0x40a33e,%eax
  40370c:	99                   	cltd   
  40370d:	0f a4 c2 10          	shld   $0x10,%eax,%edx
  403711:	c1 e0 10             	shl    $0x10,%eax
  403714:	8b d8                	mov    %eax,%ebx
  403716:	0f b7 05 3c a3 40 00 	movzwl 0x40a33c,%eax
  40371d:	0f b7 0d 38 a3 40 00 	movzwl 0x40a338,%ecx
  403724:	99                   	cltd   
  403725:	0b d8                	or     %eax,%ebx
  403727:	0f b7 05 3a a3 40 00 	movzwl 0x40a33a,%eax
  40372e:	c1 e0 10             	shl    $0x10,%eax
  403731:	0b c1                	or     %ecx,%eax
  403733:	33 c9                	xor    %ecx,%ecx
  403735:	99                   	cltd   
  403736:	0b c8                	or     %eax,%ecx
  403738:	8b c3                	mov    %ebx,%eax
  40373a:	0b c2                	or     %edx,%eax
  40373c:	8b 17                	mov    (%edi),%edx
  40373e:	3b d1                	cmp    %ecx,%edx
  403740:	75 07                	jne    0x403749
  403742:	8b 57 04             	mov    0x4(%edi),%edx
  403745:	3b d0                	cmp    %eax,%edx
  403747:	74 06                	je     0x40374f
  403749:	4f                   	dec    %edi
  40374a:	4f                   	dec    %edi
  40374b:	3b fd                	cmp    %ebp,%edi
  40374d:	73 ed                	jae    0x40373c
  40374f:	33 db                	xor    %ebx,%ebx
  403751:	3b fd                	cmp    %ebp,%edi
  403753:	c7 44 24 10 b8 a2 40 	movl   $0x40a2b8,0x10(%esp)
  40375a:	00 
  40375b:	72 66                	jb     0x4037c3
  40375d:	66 89 1f             	mov    %bx,(%edi)
  403760:	83 c7 08             	add    $0x8,%edi
  403763:	57                   	push   %edi
  403764:	e8 65 25 00 00       	call   0x405cce
  403769:	85 c0                	test   %eax,%eax
  40376b:	74 2a                	je     0x403797
  40376d:	57                   	push   %edi
  40376e:	68 00 58 43 00       	push   $0x435800
  403773:	e8 9a 2a 00 00       	call   0x406212
  403778:	57                   	push   %edi
  403779:	68 00 60 43 00       	push   $0x436000
  40377e:	e8 8f 2a 00 00       	call   0x406212
  403783:	89 5c 24 10          	mov    %ebx,0x10(%esp)
  403787:	83 0d ec a2 42 00 ff 	orl    $0xffffffff,0x42a2ec
  40378e:	e8 c8 02 00 00       	call   0x403a5b
  403793:	89 44 24 14          	mov    %eax,0x14(%esp)
  403797:	e8 cd 01 00 00       	call   0x403969
  40379c:	ff 15 a0 82 40 00    	call   *0x4082a0
  4037a2:	39 5c 24 10          	cmp    %ebx,0x10(%esp)
  4037a6:	5d                   	pop    %ebp
  4037a7:	0f 84 20 01 00 00    	je     0x4038cd
  4037ad:	68 10 00 20 00       	push   $0x200010
  4037b2:	ff 74 24 10          	pushl  0x10(%esp)
  4037b6:	e8 9c 21 00 00       	call   0x405957
  4037bb:	6a 02                	push   $0x2
  4037bd:	ff 15 9c 80 40 00    	call   *0x40809c
  4037c3:	e8 12 21 00 00       	call   0x4058da
  4037c8:	68 2c a3 40 00       	push   $0x40a32c
  4037cd:	56                   	push   %esi
  4037ce:	8b f8                	mov    %eax,%edi
  4037d0:	e8 59 2a 00 00       	call   0x40622e
  4037d5:	3b fb                	cmp    %ebx,%edi
  4037d7:	74 0b                	je     0x4037e4
  4037d9:	68 28 a3 40 00       	push   $0x40a328
  4037de:	56                   	push   %esi
  4037df:	e8 4a 2a 00 00       	call   0x40622e
  4037e4:	68 1c a3 40 00       	push   $0x40a31c
  4037e9:	56                   	push   %esi
  4037ea:	e8 3f 2a 00 00       	call   0x40622e
  4037ef:	bd 00 68 43 00       	mov    $0x436800,%ebp
  4037f4:	55                   	push   %ebp
  4037f5:	56                   	push   %esi
  4037f6:	ff 15 18 81 40 00    	call   *0x408118
  4037fc:	85 c0                	test   %eax,%eax
  4037fe:	74 97                	je     0x403797
  403800:	3b fb                	cmp    %ebx,%edi
  403802:	56                   	push   %esi
  403803:	74 07                	je     0x40380c
  403805:	e8 36 20 00 00       	call   0x405840
  40380a:	eb 05                	jmp    0x403811
  40380c:	e8 ac 20 00 00       	call   0x4058bd
  403811:	56                   	push   %esi
  403812:	ff 15 70 80 40 00    	call   *0x408070
  403818:	66 39 1d 00 58 43 00 	cmp    %bx,0x435800
  40381f:	75 0b                	jne    0x40382c
  403821:	55                   	push   %ebp
  403822:	68 00 58 43 00       	push   $0x435800
  403827:	e8 e6 29 00 00       	call   0x406212
  40382c:	ff 74 24 18          	pushl  0x18(%esp)
  403830:	68 00 b0 42 00       	push   $0x42b000
  403835:	e8 d8 29 00 00       	call   0x406212
  40383a:	0f b7 05 16 a3 40 00 	movzwl 0x40a316,%eax
  403841:	0f b7 0d 14 a3 40 00 	movzwl 0x40a314,%ecx
  403848:	c1 e0 10             	shl    $0x10,%eax
  40384b:	0b c1                	or     %ecx,%eax
  40384d:	6a 1a                	push   $0x1a
  40384f:	a3 00 b8 42 00       	mov    %eax,0x42b800
  403854:	5d                   	pop    %ebp
  403855:	bf e8 0e 42 00       	mov    $0x420ee8,%edi
  40385a:	a1 50 a2 42 00       	mov    0x42a250,%eax
  40385f:	ff b0 20 01 00 00    	pushl  0x120(%eax)
  403865:	57                   	push   %edi
  403866:	e8 c9 29 00 00       	call   0x406234
  40386b:	57                   	push   %edi
  40386c:	ff 15 44 81 40 00    	call   *0x408144
  403872:	39 5c 24 10          	cmp    %ebx,0x10(%esp)
  403876:	74 3f                	je     0x4038b7
  403878:	6a 01                	push   $0x1
  40387a:	57                   	push   %edi
  40387b:	68 00 88 43 00       	push   $0x438800
  403880:	ff 15 98 80 40 00    	call   *0x408098
  403886:	85 c0                	test   %eax,%eax
  403888:	74 2d                	je     0x4038b7
  40388a:	53                   	push   %ebx
  40388b:	57                   	push   %edi
  40388c:	e8 22 28 00 00       	call   0x4060b3
  403891:	a1 50 a2 42 00       	mov    0x42a250,%eax
  403896:	ff b0 24 01 00 00    	pushl  0x124(%eax)
  40389c:	57                   	push   %edi
  40389d:	e8 92 29 00 00       	call   0x406234
  4038a2:	57                   	push   %edi
  4038a3:	e8 4a 20 00 00       	call   0x4058f2
  4038a8:	3b c3                	cmp    %ebx,%eax
  4038aa:	74 0b                	je     0x4038b7
  4038ac:	50                   	push   %eax
  4038ad:	ff 15 20 81 40 00    	call   *0x408120
  4038b3:	89 5c 24 10          	mov    %ebx,0x10(%esp)
  4038b7:	66 ff 05 00 b8 42 00 	incw   0x42b800
  4038be:	4d                   	dec    %ebp
  4038bf:	75 99                	jne    0x40385a
  4038c1:	53                   	push   %ebx
  4038c2:	56                   	push   %esi
  4038c3:	e8 eb 27 00 00       	call   0x4060b3
  4038c8:	e9 ca fe ff ff       	jmp    0x403797
  4038cd:	39 1d d4 a2 42 00    	cmp    %ebx,0x42a2d4
  4038d3:	74 7c                	je     0x403951
  4038d5:	8d 44 24 14          	lea    0x14(%esp),%eax
  4038d9:	50                   	push   %eax
  4038da:	6a 28                	push   $0x28
  4038dc:	ff 15 bc 80 40 00    	call   *0x4080bc
  4038e2:	50                   	push   %eax
  4038e3:	ff 15 08 80 40 00    	call   *0x408008
  4038e9:	85 c0                	test   %eax,%eax
  4038eb:	74 34                	je     0x403921
  4038ed:	8d 44 24 20          	lea    0x20(%esp),%eax
  4038f1:	50                   	push   %eax
  4038f2:	68 ec a2 40 00       	push   $0x40a2ec
  4038f7:	53                   	push   %ebx
  4038f8:	ff 15 0c 80 40 00    	call   *0x40800c
  4038fe:	53                   	push   %ebx
  4038ff:	53                   	push   %ebx
  403900:	8d 44 24 24          	lea    0x24(%esp),%eax
  403904:	53                   	push   %ebx
  403905:	50                   	push   %eax
  403906:	53                   	push   %ebx
  403907:	ff 74 24 28          	pushl  0x28(%esp)
  40390b:	c7 44 24 34 01 00 00 	movl   $0x1,0x34(%esp)
  403912:	00 
  403913:	c7 44 24 40 02 00 00 	movl   $0x2,0x40(%esp)
  40391a:	00 
  40391b:	ff 15 10 80 40 00    	call   *0x408010
  403921:	6a 04                	push   $0x4
  403923:	e8 c4 2c 00 00       	call   0x4065ec
  403928:	3b c3                	cmp    %ebx,%eax
  40392a:	be 02 00 04 80       	mov    $0x80040002,%esi
  40392f:	74 0c                	je     0x40393d
  403931:	56                   	push   %esi
  403932:	6a 25                	push   $0x25
  403934:	53                   	push   %ebx
  403935:	53                   	push   %ebx
  403936:	53                   	push   %ebx
  403937:	ff d0                	call   *%eax
  403939:	85 c0                	test   %eax,%eax
  40393b:	74 0d                	je     0x40394a
  40393d:	56                   	push   %esi
  40393e:	6a 02                	push   $0x2
  403940:	ff 15 50 82 40 00    	call   *0x408250
  403946:	85 c0                	test   %eax,%eax
  403948:	75 07                	jne    0x403951
  40394a:	6a 09                	push   $0x9
  40394c:	e8 ba da ff ff       	call   0x40140b
  403951:	a1 ec a2 42 00       	mov    0x42a2ec,%eax
  403956:	83 f8 ff             	cmp    $0xffffffff,%eax
  403959:	74 04                	je     0x40395f
  40395b:	89 44 24 10          	mov    %eax,0x10(%esp)
  40395f:	ff 74 24 10          	pushl  0x10(%esp)
  403963:	ff 15 9c 80 40 00    	call   *0x40809c
  403969:	a1 18 a0 40 00       	mov    0x40a018,%eax
  40396e:	56                   	push   %esi
  40396f:	8b 35 20 81 40 00    	mov    0x408120,%esi
  403975:	83 f8 ff             	cmp    $0xffffffff,%eax
  403978:	74 0a                	je     0x403984
  40397a:	50                   	push   %eax
  40397b:	ff d6                	call   *%esi
  40397d:	83 0d 18 a0 40 00 ff 	orl    $0xffffffff,0x40a018
  403984:	a1 1c a0 40 00       	mov    0x40a01c,%eax
  403989:	83 f8 ff             	cmp    $0xffffffff,%eax
  40398c:	74 0a                	je     0x403998
  40398e:	50                   	push   %eax
  40398f:	ff d6                	call   *%esi
  403991:	83 0d 1c a0 40 00 ff 	orl    $0xffffffff,0x40a01c
  403998:	e8 29 00 00 00       	call   0x4039c6
  40399d:	6a 07                	push   $0x7
  40399f:	68 00 80 43 00       	push   $0x438000
  4039a4:	e8 5a 20 00 00       	call   0x405a03
  4039a9:	5e                   	pop    %esi
  4039aa:	c3                   	ret    
  4039ab:	56                   	push   %esi
  4039ac:	8b 35 ec 16 42 00    	mov    0x4216ec,%esi
  4039b2:	eb 0a                	jmp    0x4039be
  4039b4:	ff 74 24 08          	pushl  0x8(%esp)
  4039b8:	ff 56 04             	call   *0x4(%esi)
  4039bb:	8b 36                	mov    (%esi),%esi
  4039bd:	59                   	pop    %ecx
  4039be:	85 f6                	test   %esi,%esi
  4039c0:	75 f2                	jne    0x4039b4
  4039c2:	5e                   	pop    %esi
  4039c3:	c2 04 00             	ret    $0x4
  4039c6:	56                   	push   %esi
  4039c7:	8b 35 ec 16 42 00    	mov    0x4216ec,%esi
  4039cd:	6a 00                	push   $0x0
  4039cf:	e8 d7 ff ff ff       	call   0x4039ab
  4039d4:	85 f6                	test   %esi,%esi
  4039d6:	74 1a                	je     0x4039f2
  4039d8:	57                   	push   %edi
  4039d9:	8b fe                	mov    %esi,%edi
  4039db:	8b 36                	mov    (%esi),%esi
  4039dd:	ff 77 08             	pushl  0x8(%edi)
  4039e0:	ff 15 6c 81 40 00    	call   *0x40816c
  4039e6:	57                   	push   %edi
  4039e7:	ff 15 08 81 40 00    	call   *0x408108
  4039ed:	85 f6                	test   %esi,%esi
  4039ef:	75 e8                	jne    0x4039d9
  4039f1:	5f                   	pop    %edi
  4039f2:	83 25 ec 16 42 00 00 	andl   $0x0,0x4216ec
  4039f9:	5e                   	pop    %esi
  4039fa:	c3                   	ret    
  4039fb:	a1 ec 16 42 00       	mov    0x4216ec,%eax
  403a00:	eb 0b                	jmp    0x403a0d
  403a02:	8b 48 08             	mov    0x8(%eax),%ecx
  403a05:	3b 4c 24 04          	cmp    0x4(%esp),%ecx
  403a09:	74 0a                	je     0x403a15
  403a0b:	8b 00                	mov    (%eax),%eax
  403a0d:	85 c0                	test   %eax,%eax
  403a0f:	75 f1                	jne    0x403a02
  403a11:	40                   	inc    %eax
  403a12:	c2 04 00             	ret    $0x4
  403a15:	33 c0                	xor    %eax,%eax
  403a17:	eb f9                	jmp    0x403a12
  403a19:	56                   	push   %esi
  403a1a:	8b 74 24 08          	mov    0x8(%esp),%esi
  403a1e:	56                   	push   %esi
  403a1f:	e8 d7 ff ff ff       	call   0x4039fb
  403a24:	85 c0                	test   %eax,%eax
  403a26:	75 03                	jne    0x403a2b
  403a28:	40                   	inc    %eax
  403a29:	eb 2c                	jmp    0x403a57
  403a2b:	6a 0c                	push   $0xc
  403a2d:	6a 40                	push   $0x40
  403a2f:	ff 15 0c 81 40 00    	call   *0x40810c
  403a35:	85 c0                	test   %eax,%eax
  403a37:	74 1b                	je     0x403a54
  403a39:	8b 4c 24 0c          	mov    0xc(%esp),%ecx
  403a3d:	89 70 08             	mov    %esi,0x8(%eax)
  403a40:	89 48 04             	mov    %ecx,0x4(%eax)
  403a43:	8b 0d ec 16 42 00    	mov    0x4216ec,%ecx
  403a49:	89 08                	mov    %ecx,(%eax)
  403a4b:	a3 ec 16 42 00       	mov    %eax,0x4216ec
  403a50:	33 c0                	xor    %eax,%eax
  403a52:	eb 03                	jmp    0x403a57
  403a54:	83 c8 ff             	or     $0xffffffff,%eax
  403a57:	5e                   	pop    %esi
  403a58:	c2 08 00             	ret    $0x8
  403a5b:	83 ec 10             	sub    $0x10,%esp
  403a5e:	53                   	push   %ebx
  403a5f:	55                   	push   %ebp
  403a60:	56                   	push   %esi
  403a61:	8b 35 50 a2 42 00    	mov    0x42a250,%esi
  403a67:	57                   	push   %edi
  403a68:	6a 02                	push   $0x2
  403a6a:	e8 7d 2b 00 00       	call   0x4065ec
  403a6f:	33 ff                	xor    %edi,%edi
  403a71:	3b c7                	cmp    %edi,%eax
  403a73:	74 12                	je     0x403a87
  403a75:	ff d0                	call   *%eax
  403a77:	0f b7 c0             	movzwl %ax,%eax
  403a7a:	50                   	push   %eax
  403a7b:	68 00 70 43 00       	push   $0x437000
  403a80:	e8 d4 26 00 00       	call   0x406159
  403a85:	eb 5a                	jmp    0x403ae1
  403a87:	bb 28 37 42 00       	mov    $0x423728,%ebx
  403a8c:	57                   	push   %edi
  403a8d:	53                   	push   %ebx
  403a8e:	57                   	push   %edi
  403a8f:	68 98 83 40 00       	push   $0x408398
  403a94:	68 01 00 00 80       	push   $0x80000001
  403a99:	66 c7 05 00 70 43 00 	movw   $0x30,0x437000
  403aa0:	30 00 
  403aa2:	66 c7 05 02 70 43 00 	movw   $0x78,0x437002
  403aa9:	78 00 
  403aab:	66 89 3d 04 70 43 00 	mov    %di,0x437004
  403ab2:	e8 28 26 00 00       	call   0x4060df
  403ab7:	66 39 3d 28 37 42 00 	cmp    %di,0x423728
  403abe:	75 16                	jne    0x403ad6
  403ac0:	57                   	push   %edi
  403ac1:	53                   	push   %ebx
  403ac2:	68 d4 83 40 00       	push   $0x4083d4
  403ac7:	68 48 83 40 00       	push   $0x408348
  403acc:	68 03 00 00 80       	push   $0x80000003
  403ad1:	e8 09 26 00 00       	call   0x4060df
  403ad6:	53                   	push   %ebx
  403ad7:	68 00 70 43 00       	push   $0x437000
  403adc:	e8 4d 27 00 00       	call   0x40622e
  403ae1:	e8 4b 02 00 00       	call   0x403d31
  403ae6:	a1 58 a2 42 00       	mov    0x42a258,%eax
  403aeb:	bd 00 58 43 00       	mov    $0x435800,%ebp
  403af0:	83 e0 20             	and    $0x20,%eax
  403af3:	55                   	push   %ebp
  403af4:	a3 c0 a2 42 00       	mov    %eax,0x42a2c0
  403af9:	c7 05 dc a2 42 00 00 	movl   $0x10000,0x42a2dc
  403b00:	00 01 00 
  403b03:	e8 c6 21 00 00       	call   0x405cce
  403b08:	85 c0                	test   %eax,%eax
  403b0a:	0f 85 8c 00 00 00    	jne    0x403b9c
  403b10:	8b 4e 48             	mov    0x48(%esi),%ecx
  403b13:	3b cf                	cmp    %edi,%ecx
  403b15:	0f 84 81 00 00 00    	je     0x403b9c
  403b1b:	8b 56 4c             	mov    0x4c(%esi),%edx
  403b1e:	a1 78 a2 42 00       	mov    0x42a278,%eax
  403b23:	bb e0 81 42 00       	mov    $0x4281e0,%ebx
  403b28:	57                   	push   %edi
  403b29:	8d 14 50             	lea    (%eax,%edx,2),%edx
  403b2c:	53                   	push   %ebx
  403b2d:	8d 04 48             	lea    (%eax,%ecx,2),%eax
  403b30:	52                   	push   %edx
  403b31:	50                   	push   %eax
  403b32:	ff 76 44             	pushl  0x44(%esi)
  403b35:	e8 a5 25 00 00       	call   0x4060df
  403b3a:	66 a1 e0 81 42 00    	mov    0x4281e0,%ax
  403b40:	66 3b c7             	cmp    %di,%ax
  403b43:	74 57                	je     0x403b9c
  403b45:	66 3d 22 00          	cmp    $0x22,%ax
  403b49:	75 10                	jne    0x403b5b
  403b4b:	bb e2 81 42 00       	mov    $0x4281e2,%ebx
  403b50:	6a 22                	push   $0x22
  403b52:	53                   	push   %ebx
  403b53:	e8 9b 20 00 00       	call   0x405bf3
  403b58:	66 89 38             	mov    %di,(%eax)
  403b5b:	53                   	push   %ebx
  403b5c:	e8 c7 26 00 00       	call   0x406228
  403b61:	8d 44 43 f8          	lea    -0x8(%ebx,%eax,2),%eax
  403b65:	3b c3                	cmp    %ebx,%eax
  403b67:	76 26                	jbe    0x403b8f
  403b69:	68 bc a3 40 00       	push   $0x40a3bc
  403b6e:	50                   	push   %eax
  403b6f:	ff 15 18 81 40 00    	call   *0x408118
  403b75:	85 c0                	test   %eax,%eax
  403b77:	75 16                	jne    0x403b8f
  403b79:	53                   	push   %ebx
  403b7a:	ff 15 74 80 40 00    	call   *0x408074
  403b80:	83 f8 ff             	cmp    $0xffffffff,%eax
  403b83:	74 04                	je     0x403b89
  403b85:	a8 10                	test   $0x10,%al
  403b87:	75 06                	jne    0x403b8f
  403b89:	53                   	push   %ebx
  403b8a:	e8 83 20 00 00       	call   0x405c12
  403b8f:	53                   	push   %ebx
  403b90:	e8 31 20 00 00       	call   0x405bc6
  403b95:	50                   	push   %eax
  403b96:	55                   	push   %ebp
  403b97:	e8 76 26 00 00       	call   0x406212
  403b9c:	55                   	push   %ebp
  403b9d:	e8 2c 21 00 00       	call   0x405cce
  403ba2:	85 c0                	test   %eax,%eax
  403ba4:	75 0c                	jne    0x403bb2
  403ba6:	ff b6 18 01 00 00    	pushl  0x118(%esi)
  403bac:	55                   	push   %ebp
  403bad:	e8 82 26 00 00       	call   0x406234
  403bb2:	68 40 80 00 00       	push   $0x8040
  403bb7:	57                   	push   %edi
  403bb8:	57                   	push   %edi
  403bb9:	6a 01                	push   $0x1
  403bbb:	6a 67                	push   $0x67
  403bbd:	ff 35 40 a2 42 00    	pushl  0x42a240
  403bc3:	ff 15 58 82 40 00    	call   *0x408258
  403bc9:	a3 28 92 42 00       	mov    %eax,0x429228
  403bce:	83 7e 50 ff          	cmpl   $0xffffffff,0x50(%esi)
  403bd2:	bb e0 91 42 00       	mov    $0x4291e0,%ebx
  403bd7:	74 7f                	je     0x403c58
  403bd9:	8b 0d 40 a2 42 00    	mov    0x42a240,%ecx
  403bdf:	be b4 a3 40 00       	mov    $0x40a3b4,%esi
  403be4:	53                   	push   %ebx
  403be5:	c7 05 e4 91 42 00 00 	movl   $0x401000,0x4291e4
  403bec:	10 40 00 
  403bef:	89 0d f0 91 42 00    	mov    %ecx,0x4291f0
  403bf5:	a3 f4 91 42 00       	mov    %eax,0x4291f4
  403bfa:	89 35 04 92 42 00    	mov    %esi,0x429204
  403c00:	ff 15 38 82 40 00    	call   *0x408238
  403c06:	66 85 c0             	test   %ax,%ax
  403c09:	0f 84 18 01 00 00    	je     0x403d27
  403c0f:	8d 44 24 10          	lea    0x10(%esp),%eax
  403c13:	57                   	push   %edi
  403c14:	50                   	push   %eax
  403c15:	57                   	push   %edi
  403c16:	6a 30                	push   $0x30
  403c18:	ff 15 3c 82 40 00    	call   *0x40823c
  403c1e:	57                   	push   %edi
  403c1f:	ff 35 40 a2 42 00    	pushl  0x42a240
  403c25:	8b 44 24 24          	mov    0x24(%esp),%eax
  403c29:	2b 44 24 1c          	sub    0x1c(%esp),%eax
  403c2d:	57                   	push   %edi
  403c2e:	57                   	push   %edi
  403c2f:	50                   	push   %eax
  403c30:	8b 44 24 2c          	mov    0x2c(%esp),%eax
  403c34:	2b 44 24 24          	sub    0x24(%esp),%eax
  403c38:	50                   	push   %eax
  403c39:	ff 74 24 2c          	pushl  0x2c(%esp)
  403c3d:	ff 74 24 2c          	pushl  0x2c(%esp)
  403c41:	68 00 00 00 80       	push   $0x80000000
  403c46:	57                   	push   %edi
  403c47:	56                   	push   %esi
  403c48:	68 80 00 00 00       	push   $0x80
  403c4d:	ff 15 40 82 40 00    	call   *0x408240
  403c53:	a3 08 37 42 00       	mov    %eax,0x423708
  403c58:	57                   	push   %edi
  403c59:	e8 ad d7 ff ff       	call   0x40140b
  403c5e:	85 c0                	test   %eax,%eax
  403c60:	74 08                	je     0x403c6a
  403c62:	6a 02                	push   $0x2
  403c64:	58                   	pop    %eax
  403c65:	e9 bf 00 00 00       	jmp    0x403d29
  403c6a:	e8 c2 00 00 00       	call   0x403d31
  403c6f:	39 3d e0 a2 42 00    	cmp    %edi,0x42a2e0
  403c75:	0f 85 83 00 00 00    	jne    0x403cfe
  403c7b:	6a 05                	push   $0x5
  403c7d:	ff 35 08 37 42 00    	pushl  0x423708
  403c83:	ff 15 68 82 40 00    	call   *0x408268
  403c89:	68 3c 83 40 00       	push   $0x40833c
  403c8e:	e8 e9 28 00 00       	call   0x40657c
  403c93:	85 c0                	test   %eax,%eax
  403c95:	75 0a                	jne    0x403ca1
  403c97:	68 30 83 40 00       	push   $0x408330
  403c9c:	e8 db 28 00 00       	call   0x40657c
  403ca1:	8b 35 44 82 40 00    	mov    0x408244,%esi
  403ca7:	bd 18 83 40 00       	mov    $0x408318,%ebp
  403cac:	53                   	push   %ebx
  403cad:	55                   	push   %ebp
  403cae:	57                   	push   %edi
  403caf:	ff d6                	call   *%esi
  403cb1:	85 c0                	test   %eax,%eax
  403cb3:	75 16                	jne    0x403ccb
  403cb5:	53                   	push   %ebx
  403cb6:	68 04 83 40 00       	push   $0x408304
  403cbb:	57                   	push   %edi
  403cbc:	ff d6                	call   *%esi
  403cbe:	53                   	push   %ebx
  403cbf:	89 2d 04 92 42 00    	mov    %ebp,0x429204
  403cc5:	ff 15 38 82 40 00    	call   *0x408238
  403ccb:	a1 20 92 42 00       	mov    0x429220,%eax
  403cd0:	57                   	push   %edi
  403cd1:	83 c0 69             	add    $0x69,%eax
  403cd4:	68 fe 3d 40 00       	push   $0x403dfe
  403cd9:	0f b7 c0             	movzwl %ax,%eax
  403cdc:	57                   	push   %edi
  403cdd:	50                   	push   %eax
  403cde:	ff 35 40 a2 42 00    	pushl  0x42a240
  403ce4:	ff 15 48 82 40 00    	call   *0x408248
  403cea:	6a 05                	push   $0x5
  403cec:	8b f0                	mov    %eax,%esi
  403cee:	e8 18 d7 ff ff       	call   0x40140b
  403cf3:	6a 01                	push   $0x1
  403cf5:	e8 b1 fc ff ff       	call   0x4039ab
  403cfa:	8b c6                	mov    %esi,%eax
  403cfc:	eb 2b                	jmp    0x403d29
  403cfe:	57                   	push   %edi
  403cff:	e8 40 17 00 00       	call   0x405444
  403d04:	85 c0                	test   %eax,%eax
  403d06:	74 18                	je     0x403d20
  403d08:	39 3d 0c 92 42 00    	cmp    %edi,0x42920c
  403d0e:	0f 85 4e ff ff ff    	jne    0x403c62
  403d14:	6a 02                	push   $0x2
  403d16:	e8 f0 d6 ff ff       	call   0x40140b
  403d1b:	e9 42 ff ff ff       	jmp    0x403c62
  403d20:	6a 01                	push   $0x1
  403d22:	e8 e4 d6 ff ff       	call   0x40140b
  403d27:	33 c0                	xor    %eax,%eax
  403d29:	5f                   	pop    %edi
  403d2a:	5e                   	pop    %esi
  403d2b:	5d                   	pop    %ebp
  403d2c:	5b                   	pop    %ebx
  403d2d:	83 c4 10             	add    $0x10,%esp
  403d30:	c3                   	ret    
  403d31:	53                   	push   %ebx
  403d32:	55                   	push   %ebp
  403d33:	56                   	push   %esi
  403d34:	57                   	push   %edi
  403d35:	bf 00 70 43 00       	mov    $0x437000,%edi
  403d3a:	bb ff ff 00 00       	mov    $0xffff,%ebx
  403d3f:	57                   	push   %edi
  403d40:	e8 2d 24 00 00       	call   0x406172
  403d45:	8b 35 84 a2 42 00    	mov    0x42a284,%esi
  403d4b:	85 f6                	test   %esi,%esi
  403d4d:	74 45                	je     0x403d94
  403d4f:	8b 0d 50 a2 42 00    	mov    0x42a250,%ecx
  403d55:	8b 49 64             	mov    0x64(%ecx),%ecx
  403d58:	8b d1                	mov    %ecx,%edx
  403d5a:	0f af ce             	imul   %esi,%ecx
  403d5d:	f7 da                	neg    %edx
  403d5f:	03 0d 80 a2 42 00    	add    0x42a280,%ecx
  403d65:	03 ca                	add    %edx,%ecx
  403d67:	4e                   	dec    %esi
  403d68:	66 8b 29             	mov    (%ecx),%bp
  403d6b:	66 33 e8             	xor    %ax,%bp
  403d6e:	23 eb                	and    %ebx,%ebp
  403d70:	66 85 ed             	test   %bp,%bp
  403d73:	74 06                	je     0x403d7b
  403d75:	85 f6                	test   %esi,%esi
  403d77:	75 ec                	jne    0x403d65
  403d79:	eb 19                	jmp    0x403d94
  403d7b:	8b 51 02             	mov    0x2(%ecx),%edx
  403d7e:	89 15 20 92 42 00    	mov    %edx,0x429220
  403d84:	8b 51 06             	mov    0x6(%ecx),%edx
  403d87:	89 15 e8 a2 42 00    	mov    %edx,0x42a2e8
  403d8d:	8d 51 0a             	lea    0xa(%ecx),%edx
  403d90:	85 d2                	test   %edx,%edx
  403d92:	75 12                	jne    0x403da6
  403d94:	66 81 fb ff ff       	cmp    $0xffff,%bx
  403d99:	75 07                	jne    0x403da2
  403d9b:	bb ff 03 00 00       	mov    $0x3ff,%ebx
  403da0:	eb a3                	jmp    0x403d45
  403da2:	33 db                	xor    %ebx,%ebx
  403da4:	eb 9f                	jmp    0x403d45
  403da6:	89 15 1c 92 42 00    	mov    %edx,0x42921c
  403dac:	0f b7 01             	movzwl (%ecx),%eax
  403daf:	50                   	push   %eax
  403db0:	57                   	push   %edi
  403db1:	e8 a3 23 00 00       	call   0x406159
  403db6:	6a fe                	push   $0xfffffffe
  403db8:	68 40 92 42 00       	push   $0x429240
  403dbd:	e8 72 24 00 00       	call   0x406234
  403dc2:	50                   	push   %eax
  403dc3:	ff 35 08 37 42 00    	pushl  0x423708
  403dc9:	ff 15 60 82 40 00    	call   *0x408260
  403dcf:	a1 6c a2 42 00       	mov    0x42a26c,%eax
  403dd4:	8b 35 68 a2 42 00    	mov    0x42a268,%esi
  403dda:	85 c0                	test   %eax,%eax
  403ddc:	74 1b                	je     0x403df9
  403dde:	8b f8                	mov    %eax,%edi
  403de0:	8b 06                	mov    (%esi),%eax
  403de2:	85 c0                	test   %eax,%eax
  403de4:	74 0a                	je     0x403df0
  403de6:	50                   	push   %eax
  403de7:	8d 46 18             	lea    0x18(%esi),%eax
  403dea:	50                   	push   %eax
  403deb:	e8 44 24 00 00       	call   0x406234
  403df0:	81 c6 18 08 00 00    	add    $0x818,%esi
  403df6:	4f                   	dec    %edi
  403df7:	75 e7                	jne    0x403de0
  403df9:	5f                   	pop    %edi
  403dfa:	5e                   	pop    %esi
  403dfb:	5d                   	pop    %ebp
  403dfc:	5b                   	pop    %ebx
  403dfd:	c3                   	ret    
  403dfe:	83 ec 10             	sub    $0x10,%esp
  403e01:	b9 10 01 00 00       	mov    $0x110,%ecx
  403e06:	53                   	push   %ebx
  403e07:	8b 5c 24 1c          	mov    0x1c(%esp),%ebx
  403e0b:	55                   	push   %ebp
  403e0c:	56                   	push   %esi
  403e0d:	3b d9                	cmp    %ecx,%ebx
  403e0f:	57                   	push   %edi
  403e10:	0f 84 3b 01 00 00    	je     0x403f51
  403e16:	81 fb 08 04 00 00    	cmp    $0x408,%ebx
  403e1c:	0f 84 2f 01 00 00    	je     0x403f51
  403e22:	8b 7c 24 24          	mov    0x24(%esp),%edi
  403e26:	33 ed                	xor    %ebp,%ebp
  403e28:	83 fb 47             	cmp    $0x47,%ebx
  403e2b:	75 13                	jne    0x403e40
  403e2d:	6a 13                	push   $0x13
  403e2f:	55                   	push   %ebp
  403e30:	55                   	push   %ebp
  403e31:	55                   	push   %ebp
  403e32:	55                   	push   %ebp
  403e33:	57                   	push   %edi
  403e34:	ff 35 08 37 42 00    	pushl  0x423708
  403e3a:	ff 15 a8 81 40 00    	call   *0x4081a8
  403e40:	83 fb 05             	cmp    $0x5,%ebx
  403e43:	75 18                	jne    0x403e5d
  403e45:	8b 44 24 2c          	mov    0x2c(%esp),%eax
  403e49:	48                   	dec    %eax
  403e4a:	f7 d8                	neg    %eax
  403e4c:	1b c0                	sbb    %eax,%eax
  403e4e:	23 c3                	and    %ebx,%eax
  403e50:	50                   	push   %eax
  403e51:	ff 35 08 37 42 00    	pushl  0x423708
  403e57:	ff 15 68 82 40 00    	call   *0x408268
  403e5d:	81 fb 0d 04 00 00    	cmp    $0x40d,%ebx
  403e63:	75 1a                	jne    0x403e7f
  403e65:	ff 35 18 92 42 00    	pushl  0x429218
  403e6b:	ff 15 54 82 40 00    	call   *0x408254
  403e71:	8b 44 24 2c          	mov    0x2c(%esp),%eax
  403e75:	a3 18 92 42 00       	mov    %eax,0x429218
  403e7a:	e9 01 04 00 00       	jmp    0x404280
  403e7f:	83 fb 11             	cmp    $0x11,%ebx
  403e82:	75 11                	jne    0x403e95
  403e84:	55                   	push   %ebp
  403e85:	55                   	push   %ebp
  403e86:	57                   	push   %edi
  403e87:	ff 15 74 82 40 00    	call   *0x408274
  403e8d:	33 c0                	xor    %eax,%eax
  403e8f:	40                   	inc    %eax
  403e90:	e9 10 04 00 00       	jmp    0x4042a5
  403e95:	81 fb 11 01 00 00    	cmp    $0x111,%ebx
  403e9b:	0f 85 9d 00 00 00    	jne    0x403f3e
  403ea1:	0f b7 74 24 2c       	movzwl 0x2c(%esp),%esi
  403ea6:	56                   	push   %esi
  403ea7:	57                   	push   %edi
  403ea8:	ff 15 6c 82 40 00    	call   *0x40826c
  403eae:	8b f8                	mov    %eax,%edi
  403eb0:	3b fd                	cmp    %ebp,%edi
  403eb2:	74 1d                	je     0x403ed1
  403eb4:	55                   	push   %ebp
  403eb5:	55                   	push   %ebp
  403eb6:	68 f3 00 00 00       	push   $0xf3
  403ebb:	57                   	push   %edi
  403ebc:	ff 15 20 82 40 00    	call   *0x408220
  403ec2:	57                   	push   %edi
  403ec3:	ff 15 a0 81 40 00    	call   *0x4081a0
  403ec9:	85 c0                	test   %eax,%eax
  403ecb:	0f 84 d2 03 00 00    	je     0x4042a3
  403ed1:	83 fe 01             	cmp    $0x1,%esi
  403ed4:	75 03                	jne    0x403ed9
  403ed6:	56                   	push   %esi
  403ed7:	eb 2e                	jmp    0x403f07
  403ed9:	83 fe 03             	cmp    $0x3,%esi
  403edc:	75 0c                	jne    0x403eea
  403ede:	39 2d 9c a3 40 00    	cmp    %ebp,0x40a39c
  403ee4:	7e 3f                	jle    0x403f25
  403ee6:	6a ff                	push   $0xffffffff
  403ee8:	eb 1d                	jmp    0x403f07
  403eea:	6a 02                	push   $0x2
  403eec:	5f                   	pop    %edi
  403eed:	3b f7                	cmp    %edi,%esi
  403eef:	75 34                	jne    0x403f25
  403ef1:	39 2d cc a2 42 00    	cmp    %ebp,0x42a2cc
  403ef7:	74 15                	je     0x403f0e
  403ef9:	57                   	push   %edi
  403efa:	e8 0c d5 ff ff       	call   0x40140b
  403eff:	89 3d f8 1e 42 00    	mov    %edi,0x421ef8
  403f05:	6a 78                	push   $0x78
  403f07:	e8 a3 03 00 00       	call   0x4042af
  403f0c:	eb 30                	jmp    0x403f3e
  403f0e:	6a 03                	push   $0x3
  403f10:	e8 f6 d4 ff ff       	call   0x40140b
  403f15:	85 c0                	test   %eax,%eax
  403f17:	75 25                	jne    0x403f3e
  403f19:	c7 05 f8 1e 42 00 01 	movl   $0x1,0x421ef8
  403f20:	00 00 00 
  403f23:	eb e0                	jmp    0x403f05
  403f25:	ff 74 24 30          	pushl  0x30(%esp)
  403f29:	ff 74 24 30          	pushl  0x30(%esp)
  403f2d:	68 11 01 00 00       	push   $0x111
  403f32:	ff 35 18 92 42 00    	pushl  0x429218
  403f38:	ff 15 20 82 40 00    	call   *0x408220
  403f3e:	ff 74 24 30          	pushl  0x30(%esp)
  403f42:	ff 74 24 30          	pushl  0x30(%esp)
  403f46:	53                   	push   %ebx
  403f47:	e8 f1 03 00 00       	call   0x40433d
  403f4c:	e9 54 03 00 00       	jmp    0x4042a5
  403f51:	8b 44 24 2c          	mov    0x2c(%esp),%eax
  403f55:	8b 7c 24 24          	mov    0x24(%esp),%edi
  403f59:	3b d9                	cmp    %ecx,%ebx
  403f5b:	a3 10 37 42 00       	mov    %eax,0x423710
  403f60:	75 4d                	jne    0x403faf
  403f62:	8b 35 6c 82 40 00    	mov    0x40826c,%esi
  403f68:	6a 01                	push   $0x1
  403f6a:	57                   	push   %edi
  403f6b:	89 3d 48 a2 42 00    	mov    %edi,0x42a248
  403f71:	ff d6                	call   *%esi
  403f73:	6a 02                	push   $0x2
  403f75:	57                   	push   %edi
  403f76:	a3 24 37 42 00       	mov    %eax,0x423724
  403f7b:	ff d6                	call   *%esi
  403f7d:	6a ff                	push   $0xffffffff
  403f7f:	6a 1c                	push   $0x1c
  403f81:	57                   	push   %edi
  403f82:	a3 f0 16 42 00       	mov    %eax,0x4216f0
  403f87:	e8 4a 03 00 00       	call   0x4042d6
  403f8c:	ff 35 28 92 42 00    	pushl  0x429228
  403f92:	6a f2                	push   $0xfffffff2
  403f94:	57                   	push   %edi
  403f95:	ff 15 9c 81 40 00    	call   *0x40819c
  403f9b:	6a 04                	push   $0x4
  403f9d:	e8 69 d4 ff ff       	call   0x40140b
  403fa2:	a3 0c 92 42 00       	mov    %eax,0x42920c
  403fa7:	33 c0                	xor    %eax,%eax
  403fa9:	40                   	inc    %eax
  403faa:	a3 10 37 42 00       	mov    %eax,0x423710
  403faf:	8b 0d 9c a3 40 00    	mov    0x40a39c,%ecx
  403fb5:	33 ed                	xor    %ebp,%ebp
  403fb7:	8b f1                	mov    %ecx,%esi
  403fb9:	c1 e6 06             	shl    $0x6,%esi
  403fbc:	03 35 60 a2 42 00    	add    0x42a260,%esi
  403fc2:	3b cd                	cmp    %ebp,%ecx
  403fc4:	7c 3e                	jl     0x404004
  403fc6:	83 f8 01             	cmp    $0x1,%eax
  403fc9:	75 31                	jne    0x403ffc
  403fcb:	55                   	push   %ebp
  403fcc:	ff 76 10             	pushl  0x10(%esi)
  403fcf:	e8 b5 d3 ff ff       	call   0x401389
  403fd4:	85 c0                	test   %eax,%eax
  403fd6:	74 24                	je     0x403ffc
  403fd8:	6a 01                	push   $0x1
  403fda:	55                   	push   %ebp
  403fdb:	68 0f 04 00 00       	push   $0x40f
  403fe0:	ff 35 18 92 42 00    	pushl  0x429218
  403fe6:	ff 15 20 82 40 00    	call   *0x408220
  403fec:	33 c0                	xor    %eax,%eax
  403fee:	39 2d 0c 92 42 00    	cmp    %ebp,0x42920c
  403ff4:	0f 94 c0             	sete   %al
  403ff7:	e9 a9 02 00 00       	jmp    0x4042a5
  403ffc:	39 2e                	cmp    %ebp,(%esi)
  403ffe:	0f 84 9f 02 00 00    	je     0x4042a3
  404004:	68 0b 04 00 00       	push   $0x40b
  404009:	e8 14 03 00 00       	call   0x404322
  40400e:	a1 10 37 42 00       	mov    0x423710,%eax
  404013:	01 05 9c a3 40 00    	add    %eax,0x40a39c
  404019:	c1 e0 06             	shl    $0x6,%eax
  40401c:	03 f0                	add    %eax,%esi
  40401e:	a1 9c a3 40 00       	mov    0x40a39c,%eax
  404023:	3b 05 64 a2 42 00    	cmp    0x42a264,%eax
  404029:	75 07                	jne    0x404032
  40402b:	6a 01                	push   $0x1
  40402d:	e8 d9 d3 ff ff       	call   0x40140b
  404032:	39 2d 0c 92 42 00    	cmp    %ebp,0x42920c
  404038:	0f 85 23 02 00 00    	jne    0x404261
  40403e:	a1 64 a2 42 00       	mov    0x42a264,%eax
  404043:	39 05 9c a3 40 00    	cmp    %eax,0x40a39c
  404049:	0f 83 12 02 00 00    	jae    0x404261
  40404f:	ff 76 24             	pushl  0x24(%esi)
  404052:	8b 5e 14             	mov    0x14(%esi),%ebx
  404055:	68 00 a0 43 00       	push   $0x43a000
  40405a:	e8 d5 21 00 00       	call   0x406234
  40405f:	ff 76 20             	pushl  0x20(%esi)
  404062:	68 19 fc ff ff       	push   $0xfffffc19
  404067:	57                   	push   %edi
  404068:	e8 69 02 00 00       	call   0x4042d6
  40406d:	ff 76 1c             	pushl  0x1c(%esi)
  404070:	68 1b fc ff ff       	push   $0xfffffc1b
  404075:	57                   	push   %edi
  404076:	e8 5b 02 00 00       	call   0x4042d6
  40407b:	ff 76 28             	pushl  0x28(%esi)
  40407e:	68 1a fc ff ff       	push   $0xfffffc1a
  404083:	57                   	push   %edi
  404084:	e8 4d 02 00 00       	call   0x4042d6
  404089:	6a 03                	push   $0x3
  40408b:	57                   	push   %edi
  40408c:	ff 15 6c 82 40 00    	call   *0x40826c
  404092:	39 2d cc a2 42 00    	cmp    %ebp,0x42a2cc
  404098:	89 44 24 2c          	mov    %eax,0x2c(%esp)
  40409c:	74 08                	je     0x4040a6
  40409e:	66 81 e3 fd fe       	and    $0xfefd,%bx
  4040a3:	83 cb 04             	or     $0x4,%ebx
  4040a6:	8b cb                	mov    %ebx,%ecx
  4040a8:	83 e1 08             	and    $0x8,%ecx
  4040ab:	51                   	push   %ecx
  4040ac:	50                   	push   %eax
  4040ad:	ff 15 68 82 40 00    	call   *0x408268
  4040b3:	8b c3                	mov    %ebx,%eax
  4040b5:	25 00 01 00 00       	and    $0x100,%eax
  4040ba:	50                   	push   %eax
  4040bb:	ff 74 24 30          	pushl  0x30(%esp)
  4040bf:	ff 15 18 82 40 00    	call   *0x408218
  4040c5:	8b c3                	mov    %ebx,%eax
  4040c7:	83 e0 02             	and    $0x2,%eax
  4040ca:	50                   	push   %eax
  4040cb:	e8 28 02 00 00       	call   0x4042f8
  4040d0:	83 e3 04             	and    $0x4,%ebx
  4040d3:	53                   	push   %ebx
  4040d4:	ff 35 f0 16 42 00    	pushl  0x4216f0
  4040da:	ff 15 18 82 40 00    	call   *0x408218
  4040e0:	3b dd                	cmp    %ebp,%ebx
  4040e2:	74 03                	je     0x4040e7
  4040e4:	55                   	push   %ebp
  4040e5:	eb 02                	jmp    0x4040e9
  4040e7:	6a 01                	push   $0x1
  4040e9:	68 60 f0 00 00       	push   $0xf060
  4040ee:	55                   	push   %ebp
  4040ef:	57                   	push   %edi
  4040f0:	ff 15 98 81 40 00    	call   *0x408198
  4040f6:	50                   	push   %eax
  4040f7:	ff 15 a4 81 40 00    	call   *0x4081a4
  4040fd:	8b 1d 20 82 40 00    	mov    0x408220,%ebx
  404103:	6a 01                	push   $0x1
  404105:	55                   	push   %ebp
  404106:	68 f4 00 00 00       	push   $0xf4
  40410b:	ff 74 24 38          	pushl  0x38(%esp)
  40410f:	ff d3                	call   *%ebx
  404111:	39 2d cc a2 42 00    	cmp    %ebp,0x42a2cc
  404117:	74 13                	je     0x40412c
  404119:	55                   	push   %ebp
  40411a:	6a 02                	push   $0x2
  40411c:	68 01 04 00 00       	push   $0x401
  404121:	57                   	push   %edi
  404122:	ff d3                	call   *%ebx
  404124:	ff 35 f0 16 42 00    	pushl  0x4216f0
  40412a:	eb 06                	jmp    0x404132
  40412c:	ff 35 24 37 42 00    	pushl  0x423724
  404132:	e8 d4 01 00 00       	call   0x40430b
  404137:	bb 28 37 42 00       	mov    $0x423728,%ebx
  40413c:	68 40 92 42 00       	push   $0x429240
  404141:	53                   	push   %ebx
  404142:	e8 cb 20 00 00       	call   0x406212
  404147:	ff 76 18             	pushl  0x18(%esi)
  40414a:	53                   	push   %ebx
  40414b:	e8 d8 20 00 00       	call   0x406228
  404150:	8d 04 45 28 37 42 00 	lea    0x423728(,%eax,2),%eax
  404157:	50                   	push   %eax
  404158:	e8 d7 20 00 00       	call   0x406234
  40415d:	53                   	push   %ebx
  40415e:	57                   	push   %edi
  40415f:	ff 15 60 82 40 00    	call   *0x408260
  404165:	55                   	push   %ebp
  404166:	ff 76 08             	pushl  0x8(%esi)
  404169:	e8 1b d2 ff ff       	call   0x401389
  40416e:	85 c0                	test   %eax,%eax
  404170:	0f 85 98 fe ff ff    	jne    0x40400e
  404176:	39 2e                	cmp    %ebp,(%esi)
  404178:	0f 84 90 fe ff ff    	je     0x40400e
  40417e:	83 7e 04 05          	cmpl   $0x5,0x4(%esi)
  404182:	75 1d                	jne    0x4041a1
  404184:	39 2d cc a2 42 00    	cmp    %ebp,0x42a2cc
  40418a:	0f 85 13 01 00 00    	jne    0x4042a3
  404190:	39 2d c0 a2 42 00    	cmp    %ebp,0x42a2c0
  404196:	0f 85 72 fe ff ff    	jne    0x40400e
  40419c:	e9 02 01 00 00       	jmp    0x4042a3
  4041a1:	ff 35 18 92 42 00    	pushl  0x429218
  4041a7:	ff 15 54 82 40 00    	call   *0x408254
  4041ad:	89 35 00 27 42 00    	mov    %esi,0x422700
  4041b3:	39 2e                	cmp    %ebp,(%esi)
  4041b5:	0f 8e c5 00 00 00    	jle    0x404280
  4041bb:	8b 46 04             	mov    0x4(%esi),%eax
  4041be:	56                   	push   %esi
  4041bf:	ff 34 85 a0 a3 40 00 	pushl  0x40a3a0(,%eax,4)
  4041c6:	66 8b 06             	mov    (%esi),%ax
  4041c9:	66 03 05 20 92 42 00 	add    0x429220,%ax
  4041d0:	57                   	push   %edi
  4041d1:	0f b7 c0             	movzwl %ax,%eax
  4041d4:	50                   	push   %eax
  4041d5:	ff 35 40 a2 42 00    	pushl  0x42a240
  4041db:	ff 15 90 82 40 00    	call   *0x408290
  4041e1:	3b c5                	cmp    %ebp,%eax
  4041e3:	a3 18 92 42 00       	mov    %eax,0x429218
  4041e8:	0f 84 92 00 00 00    	je     0x404280
  4041ee:	ff 76 2c             	pushl  0x2c(%esi)
  4041f1:	6a 06                	push   $0x6
  4041f3:	50                   	push   %eax
  4041f4:	e8 dd 00 00 00       	call   0x4042d6
  4041f9:	8d 44 24 10          	lea    0x10(%esp),%eax
  4041fd:	50                   	push   %eax
  4041fe:	68 fa 03 00 00       	push   $0x3fa
  404203:	57                   	push   %edi
  404204:	ff 15 6c 82 40 00    	call   *0x40826c
  40420a:	50                   	push   %eax
  40420b:	ff 15 e8 81 40 00    	call   *0x4081e8
  404211:	8d 44 24 10          	lea    0x10(%esp),%eax
  404215:	50                   	push   %eax
  404216:	57                   	push   %edi
  404217:	ff 15 e4 81 40 00    	call   *0x4081e4
  40421d:	6a 15                	push   $0x15
  40421f:	55                   	push   %ebp
  404220:	55                   	push   %ebp
  404221:	ff 74 24 20          	pushl  0x20(%esp)
  404225:	ff 74 24 20          	pushl  0x20(%esp)
  404229:	55                   	push   %ebp
  40422a:	ff 35 18 92 42 00    	pushl  0x429218
  404230:	ff 15 a8 81 40 00    	call   *0x4081a8
  404236:	55                   	push   %ebp
  404237:	ff 76 0c             	pushl  0xc(%esi)
  40423a:	e8 4a d1 ff ff       	call   0x401389
  40423f:	39 2d 0c 92 42 00    	cmp    %ebp,0x42920c
  404245:	75 5c                	jne    0x4042a3
  404247:	6a 08                	push   $0x8
  404249:	ff 35 18 92 42 00    	pushl  0x429218
  40424f:	ff 15 68 82 40 00    	call   *0x408268
  404255:	68 05 04 00 00       	push   $0x405
  40425a:	e8 c3 00 00 00       	call   0x404322
  40425f:	eb 1f                	jmp    0x404280
  404261:	ff 35 18 92 42 00    	pushl  0x429218
  404267:	ff 15 54 82 40 00    	call   *0x408254
  40426d:	ff 35 f8 1e 42 00    	pushl  0x421ef8
  404273:	89 2d 48 a2 42 00    	mov    %ebp,0x42a248
  404279:	57                   	push   %edi
  40427a:	ff 15 34 82 40 00    	call   *0x408234
  404280:	39 2d 28 57 42 00    	cmp    %ebp,0x425728
  404286:	75 1b                	jne    0x4042a3
  404288:	39 2d 18 92 42 00    	cmp    %ebp,0x429218
  40428e:	74 13                	je     0x4042a3
  404290:	6a 0a                	push   $0xa
  404292:	57                   	push   %edi
  404293:	ff 15 68 82 40 00    	call   *0x408268
  404299:	c7 05 28 57 42 00 01 	movl   $0x1,0x425728
  4042a0:	00 00 00 
  4042a3:	33 c0                	xor    %eax,%eax
  4042a5:	5f                   	pop    %edi
  4042a6:	5e                   	pop    %esi
  4042a7:	5d                   	pop    %ebp
  4042a8:	5b                   	pop    %ebx
  4042a9:	83 c4 10             	add    $0x10,%esp
  4042ac:	c2 10 00             	ret    $0x10
  4042af:	83 7c 24 04 78       	cmpl   $0x78,0x4(%esp)
  4042b4:	75 06                	jne    0x4042bc
  4042b6:	ff 05 0c 92 42 00    	incl   0x42920c
  4042bc:	6a 00                	push   $0x0
  4042be:	ff 74 24 08          	pushl  0x8(%esp)
  4042c2:	68 08 04 00 00       	push   $0x408
  4042c7:	ff 35 48 a2 42 00    	pushl  0x42a248
  4042cd:	ff 15 20 82 40 00    	call   *0x408220
  4042d3:	c2 04 00             	ret    $0x4
  4042d6:	ff 74 24 0c          	pushl  0xc(%esp)
  4042da:	6a 00                	push   $0x0
  4042dc:	e8 53 1f 00 00       	call   0x406234
  4042e1:	50                   	push   %eax
  4042e2:	8b 44 24 0c          	mov    0xc(%esp),%eax
  4042e6:	05 e8 03 00 00       	add    $0x3e8,%eax
  4042eb:	50                   	push   %eax
  4042ec:	ff 74 24 0c          	pushl  0xc(%esp)
  4042f0:	e8 40 16 00 00       	call   0x405935
  4042f5:	c2 0c 00             	ret    $0xc
  4042f8:	ff 74 24 04          	pushl  0x4(%esp)
  4042fc:	ff 35 24 37 42 00    	pushl  0x423724
  404302:	ff 15 18 82 40 00    	call   *0x408218
  404308:	c2 04 00             	ret    $0x4
  40430b:	6a 01                	push   $0x1
  40430d:	ff 74 24 08          	pushl  0x8(%esp)
  404311:	6a 28                	push   $0x28
  404313:	ff 35 48 a2 42 00    	pushl  0x42a248
  404319:	ff 15 20 82 40 00    	call   *0x408220
  40431f:	c2 04 00             	ret    $0x4
  404322:	a1 18 92 42 00       	mov    0x429218,%eax
  404327:	85 c0                	test   %eax,%eax
  404329:	74 0f                	je     0x40433a
  40432b:	6a 00                	push   $0x0
  40432d:	6a 00                	push   $0x0
  40432f:	ff 74 24 0c          	pushl  0xc(%esp)
  404333:	50                   	push   %eax
  404334:	ff 15 20 82 40 00    	call   *0x408220
  40433a:	c2 04 00             	ret    $0x4
  40433d:	55                   	push   %ebp
  40433e:	8b ec                	mov    %esp,%ebp
  404340:	83 ec 0c             	sub    $0xc,%esp
  404343:	8b 45 08             	mov    0x8(%ebp),%eax
  404346:	56                   	push   %esi
  404347:	05 cd fe ff ff       	add    $0xfffffecd,%eax
  40434c:	83 f8 05             	cmp    $0x5,%eax
  40434f:	0f 87 8e 00 00 00    	ja     0x4043e3
  404355:	6a eb                	push   $0xffffffeb
  404357:	ff 75 10             	pushl  0x10(%ebp)
  40435a:	ff 15 b0 81 40 00    	call   *0x4081b0
  404360:	8b f0                	mov    %eax,%esi
  404362:	85 f6                	test   %esi,%esi
  404364:	74 7d                	je     0x4043e3
  404366:	f6 46 14 02          	testb  $0x2,0x14(%esi)
  40436a:	8b 06                	mov    (%esi),%eax
  40436c:	57                   	push   %edi
  40436d:	8b 3d ac 81 40 00    	mov    0x4081ac,%edi
  404373:	74 03                	je     0x404378
  404375:	50                   	push   %eax
  404376:	ff d7                	call   *%edi
  404378:	f6 46 14 01          	testb  $0x1,0x14(%esi)
  40437c:	74 0a                	je     0x404388
  40437e:	50                   	push   %eax
  40437f:	ff 75 0c             	pushl  0xc(%ebp)
  404382:	ff 15 58 80 40 00    	call   *0x408058
  404388:	ff 76 10             	pushl  0x10(%esi)
  40438b:	ff 75 0c             	pushl  0xc(%ebp)
  40438e:	ff 15 50 80 40 00    	call   *0x408050
  404394:	8b 46 04             	mov    0x4(%esi),%eax
  404397:	f6 46 14 08          	testb  $0x8,0x14(%esi)
  40439b:	89 45 f8             	mov    %eax,-0x8(%ebp)
  40439e:	74 06                	je     0x4043a6
  4043a0:	50                   	push   %eax
  4043a1:	ff d7                	call   *%edi
  4043a3:	89 45 f8             	mov    %eax,-0x8(%ebp)
  4043a6:	f6 46 14 04          	testb  $0x4,0x14(%esi)
  4043aa:	5f                   	pop    %edi
  4043ab:	74 0a                	je     0x4043b7
  4043ad:	50                   	push   %eax
  4043ae:	ff 75 0c             	pushl  0xc(%ebp)
  4043b1:	ff 15 68 80 40 00    	call   *0x408068
  4043b7:	f6 46 14 10          	testb  $0x10,0x14(%esi)
  4043bb:	74 21                	je     0x4043de
  4043bd:	8b 46 08             	mov    0x8(%esi),%eax
  4043c0:	89 45 f4             	mov    %eax,-0xc(%ebp)
  4043c3:	8b 46 0c             	mov    0xc(%esi),%eax
  4043c6:	85 c0                	test   %eax,%eax
  4043c8:	74 07                	je     0x4043d1
  4043ca:	50                   	push   %eax
  4043cb:	ff 15 5c 80 40 00    	call   *0x40805c
  4043d1:	8d 45 f4             	lea    -0xc(%ebp),%eax
  4043d4:	50                   	push   %eax
  4043d5:	ff 15 64 80 40 00    	call   *0x408064
  4043db:	89 46 0c             	mov    %eax,0xc(%esi)
  4043de:	8b 46 0c             	mov    0xc(%esi),%eax
  4043e1:	eb 02                	jmp    0x4043e5
  4043e3:	33 c0                	xor    %eax,%eax
  4043e5:	5e                   	pop    %esi
  4043e6:	c9                   	leave  
  4043e7:	c2 0c 00             	ret    $0xc
  4043ea:	55                   	push   %ebp
  4043eb:	8b ec                	mov    %esp,%ebp
  4043ed:	8b 45 10             	mov    0x10(%ebp),%eax
  4043f0:	8b 0d f4 16 42 00    	mov    0x4216f4,%ecx
  4043f6:	d1 e8                	shr    %eax
  4043f8:	50                   	push   %eax
  4043f9:	8b 45 08             	mov    0x8(%ebp),%eax
  4043fc:	03 c8                	add    %eax,%ecx
  4043fe:	51                   	push   %ecx
  4043ff:	ff 75 0c             	pushl  0xc(%ebp)
  404402:	ff 15 34 81 40 00    	call   *0x408134
  404408:	ff 75 0c             	pushl  0xc(%ebp)
  40440b:	ff 15 30 81 40 00    	call   *0x408130
  404411:	8b 4d 14             	mov    0x14(%ebp),%ecx
  404414:	03 c0                	add    %eax,%eax
  404416:	89 01                	mov    %eax,(%ecx)
  404418:	01 05 f4 16 42 00    	add    %eax,0x4216f4
  40441e:	33 c0                	xor    %eax,%eax
  404420:	5d                   	pop    %ebp
  404421:	c2 10 00             	ret    $0x10
  404424:	55                   	push   %ebp
  404425:	8b ec                	mov    %esp,%ebp
  404427:	a1 f4 16 42 00       	mov    0x4216f4,%eax
  40442c:	56                   	push   %esi
  40442d:	8b 75 08             	mov    0x8(%ebp),%esi
  404430:	8d 04 46             	lea    (%esi,%eax,2),%eax
  404433:	50                   	push   %eax
  404434:	ff 15 30 81 40 00    	call   *0x408130
  40443a:	8b 4d 10             	mov    0x10(%ebp),%ecx
  40443d:	d1 e9                	shr    %ecx
  40443f:	3b c1                	cmp    %ecx,%eax
  404441:	72 02                	jb     0x404445
  404443:	8b c1                	mov    %ecx,%eax
  404445:	33 c9                	xor    %ecx,%ecx
  404447:	51                   	push   %ecx
  404448:	51                   	push   %ecx
  404449:	ff 75 10             	pushl  0x10(%ebp)
  40444c:	ff 75 0c             	pushl  0xc(%ebp)
  40444f:	50                   	push   %eax
  404450:	a1 f4 16 42 00       	mov    0x4216f4,%eax
  404455:	8d 04 46             	lea    (%esi,%eax,2),%eax
  404458:	50                   	push   %eax
  404459:	51                   	push   %ecx
  40445a:	51                   	push   %ecx
  40445b:	ff 15 60 81 40 00    	call   *0x408160
  404461:	8b 4d 14             	mov    0x14(%ebp),%ecx
  404464:	5e                   	pop    %esi
  404465:	89 01                	mov    %eax,(%ecx)
  404467:	01 05 f4 16 42 00    	add    %eax,0x4216f4
  40446d:	33 c0                	xor    %eax,%eax
  40446f:	5d                   	pop    %ebp
  404470:	c2 10 00             	ret    $0x10
  404473:	55                   	push   %ebp
  404474:	8b ec                	mov    %esp,%ebp
  404476:	83 ec 0c             	sub    $0xc,%esp
  404479:	53                   	push   %ebx
  40447a:	33 db                	xor    %ebx,%ebx
  40447c:	81 7d 0c 10 01 00 00 	cmpl   $0x110,0xc(%ebp)
  404483:	56                   	push   %esi
  404484:	57                   	push   %edi
  404485:	0f 85 1a 01 00 00    	jne    0x4045a5
  40448b:	8b 7d 14             	mov    0x14(%ebp),%edi
  40448e:	8b 47 30             	mov    0x30(%edi),%eax
  404491:	3b c3                	cmp    %ebx,%eax
  404493:	7d 11                	jge    0x4044a6
  404495:	8b 0d 1c 92 42 00    	mov    0x42921c,%ecx
  40449b:	8d 04 85 04 00 00 00 	lea    0x4(,%eax,4),%eax
  4044a2:	2b c8                	sub    %eax,%ecx
  4044a4:	8b 01                	mov    (%ecx),%eax
  4044a6:	8b 0d 78 a2 42 00    	mov    0x42a278,%ecx
  4044ac:	8d 04 41             	lea    (%ecx,%eax,2),%eax
  4044af:	0f b7 08             	movzwl (%eax),%ecx
  4044b2:	40                   	inc    %eax
  4044b3:	89 4d 0c             	mov    %ecx,0xc(%ebp)
  4044b6:	40                   	inc    %eax
  4044b7:	83 f9 02             	cmp    $0x2,%ecx
  4044ba:	89 45 14             	mov    %eax,0x14(%ebp)
  4044bd:	89 45 f4             	mov    %eax,-0xc(%ebp)
  4044c0:	89 5d f8             	mov    %ebx,-0x8(%ebp)
  4044c3:	c7 45 fc 24 44 40 00 	movl   $0x404424,-0x4(%ebp)
  4044ca:	74 07                	je     0x4044d3
  4044cc:	c7 45 fc ea 43 40 00 	movl   $0x4043ea,-0x4(%ebp)
  4044d3:	8b 47 14             	mov    0x14(%edi),%eax
  4044d6:	ff 77 34             	pushl  0x34(%edi)
  4044d9:	8b f0                	mov    %eax,%esi
  4044db:	83 e0 01             	and    $0x1,%eax
  4044de:	f7 d6                	not    %esi
  4044e0:	c1 ee 05             	shr    $0x5,%esi
  4044e3:	6a 22                	push   $0x22
  4044e5:	83 e6 01             	and    $0x1,%esi
  4044e8:	ff 75 08             	pushl  0x8(%ebp)
  4044eb:	0b f0                	or     %eax,%esi
  4044ed:	e8 e4 fd ff ff       	call   0x4042d6
  4044f2:	ff 77 38             	pushl  0x38(%edi)
  4044f5:	6a 23                	push   $0x23
  4044f7:	ff 75 08             	pushl  0x8(%ebp)
  4044fa:	e8 d7 fd ff ff       	call   0x4042d6
  4044ff:	33 c0                	xor    %eax,%eax
  404501:	3b f3                	cmp    %ebx,%esi
  404503:	0f 94 c0             	sete   %al
  404506:	05 0a 04 00 00       	add    $0x40a,%eax
  40450b:	6a 01                	push   $0x1
  40450d:	50                   	push   %eax
  40450e:	ff 75 08             	pushl  0x8(%ebp)
  404511:	ff 15 bc 81 40 00    	call   *0x4081bc
  404517:	56                   	push   %esi
  404518:	e8 db fd ff ff       	call   0x4042f8
  40451d:	68 e8 03 00 00       	push   $0x3e8
  404522:	ff 75 08             	pushl  0x8(%ebp)
  404525:	ff 15 6c 82 40 00    	call   *0x40826c
  40452b:	8b f8                	mov    %eax,%edi
  40452d:	57                   	push   %edi
  40452e:	e8 d8 fd ff ff       	call   0x40430b
  404533:	8b 35 20 82 40 00    	mov    0x408220,%esi
  404539:	53                   	push   %ebx
  40453a:	6a 01                	push   $0x1
  40453c:	68 5b 04 00 00       	push   $0x45b
  404541:	57                   	push   %edi
  404542:	ff d6                	call   *%esi
  404544:	a1 50 a2 42 00       	mov    0x42a250,%eax
  404549:	8b 40 68             	mov    0x68(%eax),%eax
  40454c:	3b c3                	cmp    %ebx,%eax
  40454e:	7d 09                	jge    0x404559
  404550:	f7 d8                	neg    %eax
  404552:	50                   	push   %eax
  404553:	ff 15 ac 81 40 00    	call   *0x4081ac
  404559:	50                   	push   %eax
  40455a:	53                   	push   %ebx
  40455b:	68 43 04 00 00       	push   $0x443
  404560:	57                   	push   %edi
  404561:	ff d6                	call   *%esi
  404563:	68 00 00 01 04       	push   $0x4010000
  404568:	53                   	push   %ebx
  404569:	68 45 04 00 00       	push   $0x445
  40456e:	57                   	push   %edi
  40456f:	ff d6                	call   *%esi
  404571:	ff 75 14             	pushl  0x14(%ebp)
  404574:	e8 af 1c 00 00       	call   0x406228
  404579:	50                   	push   %eax
  40457a:	53                   	push   %ebx
  40457b:	68 35 04 00 00       	push   $0x435
  404580:	57                   	push   %edi
  404581:	ff d6                	call   *%esi
  404583:	8d 45 f4             	lea    -0xc(%ebp),%eax
  404586:	89 1d f4 16 42 00    	mov    %ebx,0x4216f4
  40458c:	50                   	push   %eax
  40458d:	ff 75 0c             	pushl  0xc(%ebp)
  404590:	68 49 04 00 00       	push   $0x449
  404595:	57                   	push   %edi
  404596:	ff d6                	call   *%esi
  404598:	89 1d f4 16 42 00    	mov    %ebx,0x4216f4
  40459e:	33 c0                	xor    %eax,%eax
  4045a0:	e9 5a 01 00 00       	jmp    0x4046ff
  4045a5:	81 7d 0c 11 01 00 00 	cmpl   $0x111,0xc(%ebp)
  4045ac:	8b 35 20 82 40 00    	mov    0x408220,%esi
  4045b2:	75 5b                	jne    0x40460f
  4045b4:	8b 45 10             	mov    0x10(%ebp),%eax
  4045b7:	c1 e8 10             	shr    $0x10,%eax
  4045ba:	66 85 c0             	test   %ax,%ax
  4045bd:	0f 85 2d 01 00 00    	jne    0x4046f0
  4045c3:	39 1d f4 16 42 00    	cmp    %ebx,0x4216f4
  4045c9:	0f 85 21 01 00 00    	jne    0x4046f0
  4045cf:	a1 00 27 42 00       	mov    0x422700,%eax
  4045d4:	8d 78 14             	lea    0x14(%eax),%edi
  4045d7:	f6 07 20             	testb  $0x20,(%edi)
  4045da:	0f 84 10 01 00 00    	je     0x4046f0
  4045e0:	53                   	push   %ebx
  4045e1:	53                   	push   %ebx
  4045e2:	68 f0 00 00 00       	push   $0xf0
  4045e7:	68 0a 04 00 00       	push   $0x40a
  4045ec:	ff 75 08             	pushl  0x8(%ebp)
  4045ef:	ff 15 6c 82 40 00    	call   *0x40826c
  4045f5:	50                   	push   %eax
  4045f6:	ff d6                	call   *%esi
  4045f8:	8b 0f                	mov    (%edi),%ecx
  4045fa:	83 e0 01             	and    $0x1,%eax
  4045fd:	83 e1 fe             	and    $0xfffffffe,%ecx
  404600:	50                   	push   %eax
  404601:	0b c8                	or     %eax,%ecx
  404603:	89 0f                	mov    %ecx,(%edi)
  404605:	e8 ee fc ff ff       	call   0x4042f8
  40460a:	e8 f7 00 00 00       	call   0x404706
  40460f:	83 7d 0c 4e          	cmpl   $0x4e,0xc(%ebp)
  404613:	0f 85 c8 00 00 00    	jne    0x4046e1
  404619:	68 e8 03 00 00       	push   $0x3e8
  40461e:	ff 75 08             	pushl  0x8(%ebp)
  404621:	ff 15 6c 82 40 00    	call   *0x40826c
  404627:	8b 7d 14             	mov    0x14(%ebp),%edi
  40462a:	81 7f 08 0b 07 00 00 	cmpl   $0x70b,0x8(%edi)
  404631:	75 6f                	jne    0x4046a2
  404633:	81 7f 0c 01 02 00 00 	cmpl   $0x201,0xc(%edi)
  40463a:	75 66                	jne    0x4046a2
  40463c:	8b 4f 1c             	mov    0x1c(%edi),%ecx
  40463f:	8b 57 18             	mov    0x18(%edi),%edx
  404642:	89 4d f8             	mov    %ecx,-0x8(%ebp)
  404645:	2b ca                	sub    %edx,%ecx
  404647:	81 f9 00 08 00 00    	cmp    $0x800,%ecx
  40464d:	89 55 f4             	mov    %edx,-0xc(%ebp)
  404650:	c7 45 fc e0 81 42 00 	movl   $0x4281e0,-0x4(%ebp)
  404657:	73 49                	jae    0x4046a2
  404659:	8d 4d f4             	lea    -0xc(%ebp),%ecx
  40465c:	51                   	push   %ecx
  40465d:	53                   	push   %ebx
  40465e:	68 4b 04 00 00       	push   $0x44b
  404663:	50                   	push   %eax
  404664:	ff d6                	call   *%esi
  404666:	8b 3d b8 81 40 00    	mov    0x4081b8,%edi
  40466c:	68 02 7f 00 00       	push   $0x7f02
  404671:	53                   	push   %ebx
  404672:	ff d7                	call   *%edi
  404674:	50                   	push   %eax
  404675:	ff 15 b4 81 40 00    	call   *0x4081b4
  40467b:	6a 01                	push   $0x1
  40467d:	53                   	push   %ebx
  40467e:	53                   	push   %ebx
  40467f:	ff 75 fc             	pushl  -0x4(%ebp)
  404682:	68 c8 a3 40 00       	push   $0x40a3c8
  404687:	ff 75 08             	pushl  0x8(%ebp)
  40468a:	ff 15 8c 81 40 00    	call   *0x40818c
  404690:	68 00 7f 00 00       	push   $0x7f00
  404695:	53                   	push   %ebx
  404696:	ff d7                	call   *%edi
  404698:	50                   	push   %eax
  404699:	ff 15 b4 81 40 00    	call   *0x4081b4
  40469f:	8b 7d 14             	mov    0x14(%ebp),%edi
  4046a2:	81 7f 08 00 07 00 00 	cmpl   $0x700,0x8(%edi)
  4046a9:	75 48                	jne    0x4046f3
  4046ab:	81 7f 0c 00 01 00 00 	cmpl   $0x100,0xc(%edi)
  4046b2:	75 3f                	jne    0x4046f3
  4046b4:	83 7f 10 0d          	cmpl   $0xd,0x10(%edi)
  4046b8:	75 10                	jne    0x4046ca
  4046ba:	53                   	push   %ebx
  4046bb:	6a 01                	push   $0x1
  4046bd:	68 11 01 00 00       	push   $0x111
  4046c2:	ff 35 48 a2 42 00    	pushl  0x42a248
  4046c8:	ff d6                	call   *%esi
  4046ca:	83 7f 10 1b          	cmpl   $0x1b,0x10(%edi)
  4046ce:	75 0c                	jne    0x4046dc
  4046d0:	53                   	push   %ebx
  4046d1:	53                   	push   %ebx
  4046d2:	6a 10                	push   $0x10
  4046d4:	ff 35 48 a2 42 00    	pushl  0x42a248
  4046da:	ff d6                	call   *%esi
  4046dc:	33 c0                	xor    %eax,%eax
  4046de:	40                   	inc    %eax
  4046df:	eb 1e                	jmp    0x4046ff
  4046e1:	81 7d 0c 0b 04 00 00 	cmpl   $0x40b,0xc(%ebp)
  4046e8:	75 06                	jne    0x4046f0
  4046ea:	ff 05 f4 16 42 00    	incl   0x4216f4
  4046f0:	8b 7d 14             	mov    0x14(%ebp),%edi
  4046f3:	57                   	push   %edi
  4046f4:	ff 75 10             	pushl  0x10(%ebp)
  4046f7:	ff 75 0c             	pushl  0xc(%ebp)
  4046fa:	e8 3e fc ff ff       	call   0x40433d
  4046ff:	5f                   	pop    %edi
  404700:	5e                   	pop    %esi
  404701:	5b                   	pop    %ebx
  404702:	c9                   	leave  
  404703:	c2 10 00             	ret    $0x10
  404706:	83 3d cc a2 42 00 00 	cmpl   $0x0,0x42a2cc
  40470d:	a1 f0 16 42 00       	mov    0x4216f0,%eax
  404712:	75 05                	jne    0x404719
  404714:	a1 24 37 42 00       	mov    0x423724,%eax
  404719:	6a 01                	push   $0x1
  40471b:	6a 01                	push   $0x1
  40471d:	68 f4 00 00 00       	push   $0xf4
  404722:	50                   	push   %eax
  404723:	ff 15 20 82 40 00    	call   *0x408220
  404729:	c3                   	ret    
  40472a:	55                   	push   %ebp
  40472b:	8b ec                	mov    %esp,%ebp
  40472d:	81 7d 0c 10 01 00 00 	cmpl   $0x110,0xc(%ebp)
  404734:	56                   	push   %esi
  404735:	8b 75 14             	mov    0x14(%ebp),%esi
  404738:	75 26                	jne    0x404760
  40473a:	ff 76 30             	pushl  0x30(%esi)
  40473d:	6a 1d                	push   $0x1d
  40473f:	ff 75 08             	pushl  0x8(%ebp)
  404742:	e8 8f fb ff ff       	call   0x4042d6
  404747:	8b 46 3c             	mov    0x3c(%esi),%eax
  40474a:	c1 e0 0b             	shl    $0xb,%eax
  40474d:	05 00 b0 42 00       	add    $0x42b000,%eax
  404752:	50                   	push   %eax
  404753:	68 e8 03 00 00       	push   $0x3e8
  404758:	ff 75 08             	pushl  0x8(%ebp)
  40475b:	e8 d5 11 00 00       	call   0x405935
  404760:	56                   	push   %esi
  404761:	ff 75 10             	pushl  0x10(%ebp)
  404764:	ff 75 0c             	pushl  0xc(%ebp)
  404767:	e8 d1 fb ff ff       	call   0x40433d
  40476c:	5e                   	pop    %esi
  40476d:	5d                   	pop    %ebp
  40476e:	c2 10 00             	ret    $0x10
  404771:	55                   	push   %ebp
  404772:	8b ec                	mov    %esp,%ebp
  404774:	83 ec 4c             	sub    $0x4c,%esp
  404777:	a1 00 27 42 00       	mov    0x422700,%eax
  40477c:	53                   	push   %ebx
  40477d:	89 45 e4             	mov    %eax,-0x1c(%ebp)
  404780:	56                   	push   %esi
  404781:	8b 58 3c             	mov    0x3c(%eax),%ebx
  404784:	8b 40 38             	mov    0x38(%eax),%eax
  404787:	c1 e3 0b             	shl    $0xb,%ebx
  40478a:	81 c3 00 b0 42 00    	add    $0x42b000,%ebx
  404790:	81 7d 0c 0b 04 00 00 	cmpl   $0x40b,0xc(%ebp)
  404797:	57                   	push   %edi
  404798:	89 45 f8             	mov    %eax,-0x8(%ebp)
  40479b:	75 11                	jne    0x4047ae
  40479d:	53                   	push   %ebx
  40479e:	68 fb 03 00 00       	push   $0x3fb
  4047a3:	e8 93 11 00 00       	call   0x40593b
  4047a8:	53                   	push   %ebx
  4047a9:	e8 f8 1c 00 00       	call   0x4064a6
  4047ae:	81 7d 0c 10 01 00 00 	cmpl   $0x110,0xc(%ebp)
  4047b5:	8b 75 08             	mov    0x8(%ebp),%esi
  4047b8:	75 6c                	jne    0x404826
  4047ba:	68 fb 03 00 00       	push   $0x3fb
  4047bf:	56                   	push   %esi
  4047c0:	ff 15 6c 82 40 00    	call   *0x40826c
  4047c6:	53                   	push   %ebx
  4047c7:	8b f8                	mov    %eax,%edi
  4047c9:	e8 6f 14 00 00       	call   0x405c3d
  4047ce:	85 c0                	test   %eax,%eax
  4047d0:	74 10                	je     0x4047e2
  4047d2:	53                   	push   %ebx
  4047d3:	e8 99 14 00 00       	call   0x405c71
  4047d8:	85 c0                	test   %eax,%eax
  4047da:	75 06                	jne    0x4047e2
  4047dc:	53                   	push   %ebx
  4047dd:	e8 e4 13 00 00       	call   0x405bc6
  4047e2:	53                   	push   %ebx
  4047e3:	57                   	push   %edi
  4047e4:	89 35 18 92 42 00    	mov    %esi,0x429218
  4047ea:	ff 15 60 82 40 00    	call   *0x408260
  4047f0:	8b 45 14             	mov    0x14(%ebp),%eax
  4047f3:	ff 70 34             	pushl  0x34(%eax)
  4047f6:	6a 01                	push   $0x1
  4047f8:	56                   	push   %esi
  4047f9:	e8 d8 fa ff ff       	call   0x4042d6
  4047fe:	8b 45 14             	mov    0x14(%ebp),%eax
  404801:	ff 70 30             	pushl  0x30(%eax)
  404804:	6a 14                	push   $0x14
  404806:	56                   	push   %esi
  404807:	e8 ca fa ff ff       	call   0x4042d6
  40480c:	57                   	push   %edi
  40480d:	e8 f9 fa ff ff       	call   0x40430b
  404812:	6a 06                	push   $0x6
  404814:	e8 d3 1d 00 00       	call   0x4065ec
  404819:	85 c0                	test   %eax,%eax
  40481b:	0f 84 91 02 00 00    	je     0x404ab2
  404821:	6a 01                	push   $0x1
  404823:	57                   	push   %edi
  404824:	ff d0                	call   *%eax
  404826:	81 7d 0c 11 01 00 00 	cmpl   $0x111,0xc(%ebp)
  40482d:	0f 85 d1 00 00 00    	jne    0x404904
  404833:	0f b7 45 10          	movzwl 0x10(%ebp),%eax
  404837:	3d fb 03 00 00       	cmp    $0x3fb,%eax
  40483c:	75 18                	jne    0x404856
  40483e:	8b 4d 10             	mov    0x10(%ebp),%ecx
  404841:	c1 e9 10             	shr    $0x10,%ecx
  404844:	66 81 f9 00 03       	cmp    $0x300,%cx
  404849:	0f 85 63 02 00 00    	jne    0x404ab2
  40484f:	c7 45 0c 0f 04 00 00 	movl   $0x40f,0xc(%ebp)
  404856:	3d e9 03 00 00       	cmp    $0x3e9,%eax
  40485b:	0f 85 a3 00 00 00    	jne    0x404904
  404861:	6a 07                	push   $0x7
  404863:	33 c0                	xor    %eax,%eax
  404865:	59                   	pop    %ecx
  404866:	8d 7d b8             	lea    -0x48(%ebp),%edi
  404869:	ff 75 f8             	pushl  -0x8(%ebp)
  40486c:	f3 ab                	rep stos %eax,%es:(%edi)
  40486e:	bf 28 37 42 00       	mov    $0x423728,%edi
  404873:	68 00 1f 42 00       	push   $0x421f00
  404878:	89 75 b4             	mov    %esi,-0x4c(%ebp)
  40487b:	89 7d bc             	mov    %edi,-0x44(%ebp)
  40487e:	c7 45 c8 c7 4a 40 00 	movl   $0x404ac7,-0x38(%ebp)
  404885:	89 5d cc             	mov    %ebx,-0x34(%ebp)
  404888:	e8 a7 19 00 00       	call   0x406234
  40488d:	89 45 c0             	mov    %eax,-0x40(%ebp)
  404890:	8d 45 b4             	lea    -0x4c(%ebp),%eax
  404893:	50                   	push   %eax
  404894:	c7 45 c4 41 00 00 00 	movl   $0x41,-0x3c(%ebp)
  40489b:	ff 15 84 81 40 00    	call   *0x408184
  4048a1:	85 c0                	test   %eax,%eax
  4048a3:	74 58                	je     0x4048fd
  4048a5:	50                   	push   %eax
  4048a6:	ff 15 a8 82 40 00    	call   *0x4082a8
  4048ac:	53                   	push   %ebx
  4048ad:	e8 14 13 00 00       	call   0x405bc6
  4048b2:	a1 50 a2 42 00       	mov    0x42a250,%eax
  4048b7:	8b 80 1c 01 00 00    	mov    0x11c(%eax),%eax
  4048bd:	85 c0                	test   %eax,%eax
  4048bf:	74 28                	je     0x4048e9
  4048c1:	81 fb 00 58 43 00    	cmp    $0x435800,%ebx
  4048c7:	75 20                	jne    0x4048e9
  4048c9:	50                   	push   %eax
  4048ca:	6a 00                	push   $0x0
  4048cc:	e8 63 19 00 00       	call   0x406234
  4048d1:	57                   	push   %edi
  4048d2:	bf e0 81 42 00       	mov    $0x4281e0,%edi
  4048d7:	57                   	push   %edi
  4048d8:	ff 15 18 81 40 00    	call   *0x408118
  4048de:	85 c0                	test   %eax,%eax
  4048e0:	74 07                	je     0x4048e9
  4048e2:	57                   	push   %edi
  4048e3:	53                   	push   %ebx
  4048e4:	e8 45 19 00 00       	call   0x40622e
  4048e9:	ff 05 18 37 42 00    	incl   0x423718
  4048ef:	53                   	push   %ebx
  4048f0:	68 fb 03 00 00       	push   $0x3fb
  4048f5:	56                   	push   %esi
  4048f6:	e8 3a 10 00 00       	call   0x405935
  4048fb:	eb 07                	jmp    0x404904
  4048fd:	c7 45 0c 0f 04 00 00 	movl   $0x40f,0xc(%ebp)
  404904:	81 7d 0c 0f 04 00 00 	cmpl   $0x40f,0xc(%ebp)
  40490b:	74 0d                	je     0x40491a
  40490d:	81 7d 0c 05 04 00 00 	cmpl   $0x405,0xc(%ebp)
  404914:	0f 85 98 01 00 00    	jne    0x404ab2
  40491a:	83 65 fc 00          	andl   $0x0,-0x4(%ebp)
  40491e:	83 65 f8 00          	andl   $0x0,-0x8(%ebp)
  404922:	53                   	push   %ebx
  404923:	68 fb 03 00 00       	push   $0x3fb
  404928:	e8 0e 10 00 00       	call   0x40593b
  40492d:	53                   	push   %ebx
  40492e:	e8 9b 13 00 00       	call   0x405cce
  404933:	85 c0                	test   %eax,%eax
  404935:	75 07                	jne    0x40493e
  404937:	c7 45 fc 01 00 00 00 	movl   $0x1,-0x4(%ebp)
  40493e:	be f8 16 42 00       	mov    $0x4216f8,%esi
  404943:	53                   	push   %ebx
  404944:	56                   	push   %esi
  404945:	e8 c8 18 00 00       	call   0x406212
  40494a:	6a 01                	push   $0x1
  40494c:	e8 9b 1c 00 00       	call   0x4065ec
  404951:	85 c0                	test   %eax,%eax
  404953:	89 45 f4             	mov    %eax,-0xc(%ebp)
  404956:	74 3a                	je     0x404992
  404958:	33 c0                	xor    %eax,%eax
  40495a:	33 ff                	xor    %edi,%edi
  40495c:	3b c6                	cmp    %esi,%eax
  40495e:	74 32                	je     0x404992
  404960:	8d 45 dc             	lea    -0x24(%ebp),%eax
  404963:	50                   	push   %eax
  404964:	8d 45 e8             	lea    -0x18(%ebp),%eax
  404967:	50                   	push   %eax
  404968:	8d 45 d4             	lea    -0x2c(%ebp),%eax
  40496b:	50                   	push   %eax
  40496c:	56                   	push   %esi
  40496d:	ff 55 f4             	call   *-0xc(%ebp)
  404970:	85 c0                	test   %eax,%eax
  404972:	75 76                	jne    0x4049ea
  404974:	85 ff                	test   %edi,%edi
  404976:	74 03                	je     0x40497b
  404978:	66 21 07             	and    %ax,(%edi)
  40497b:	56                   	push   %esi
  40497c:	e8 91 12 00 00       	call   0x405c12
  404981:	8b f8                	mov    %eax,%edi
  404983:	66 83 27 00          	andw   $0x0,(%edi)
  404987:	4f                   	dec    %edi
  404988:	4f                   	dec    %edi
  404989:	3b fe                	cmp    %esi,%edi
  40498b:	66 c7 07 5c 00       	movw   $0x5c,(%edi)
  404990:	75 ce                	jne    0x404960
  404992:	53                   	push   %ebx
  404993:	56                   	push   %esi
  404994:	e8 79 18 00 00       	call   0x406212
  404999:	56                   	push   %esi
  40499a:	e8 d2 12 00 00       	call   0x405c71
  40499f:	33 ff                	xor    %edi,%edi
  4049a1:	3b c7                	cmp    %edi,%eax
  4049a3:	74 03                	je     0x4049a8
  4049a5:	66 89 38             	mov    %di,(%eax)
  4049a8:	8d 45 e0             	lea    -0x20(%ebp),%eax
  4049ab:	50                   	push   %eax
  4049ac:	8d 45 f4             	lea    -0xc(%ebp),%eax
  4049af:	50                   	push   %eax
  4049b0:	8d 45 ec             	lea    -0x14(%ebp),%eax
  4049b3:	50                   	push   %eax
  4049b4:	8d 45 f0             	lea    -0x10(%ebp),%eax
  4049b7:	50                   	push   %eax
  4049b8:	56                   	push   %esi
  4049b9:	ff 15 2c 81 40 00    	call   *0x40812c
  4049bf:	85 c0                	test   %eax,%eax
  4049c1:	74 43                	je     0x404a06
  4049c3:	8b 45 f0             	mov    -0x10(%ebp),%eax
  4049c6:	be 00 04 00 00       	mov    $0x400,%esi
  4049cb:	0f af 45 ec          	imul   -0x14(%ebp),%eax
  4049cf:	56                   	push   %esi
  4049d0:	ff 75 f4             	pushl  -0xc(%ebp)
  4049d3:	50                   	push   %eax
  4049d4:	ff 15 54 81 40 00    	call   *0x408154
  4049da:	99                   	cltd   
  4049db:	89 45 d4             	mov    %eax,-0x2c(%ebp)
  4049de:	89 55 d8             	mov    %edx,-0x28(%ebp)
  4049e1:	c7 45 f8 01 00 00 00 	movl   $0x1,-0x8(%ebp)
  4049e8:	eb 21                	jmp    0x404a0b
  4049ea:	8b 45 d4             	mov    -0x2c(%ebp),%eax
  4049ed:	8b 4d d8             	mov    -0x28(%ebp),%ecx
  4049f0:	0f ac c8 0a          	shrd   $0xa,%ecx,%eax
  4049f4:	c1 e9 0a             	shr    $0xa,%ecx
  4049f7:	89 45 d4             	mov    %eax,-0x2c(%ebp)
  4049fa:	89 4d d8             	mov    %ecx,-0x28(%ebp)
  4049fd:	c7 45 f8 01 00 00 00 	movl   $0x1,-0x8(%ebp)
  404a04:	33 ff                	xor    %edi,%edi
  404a06:	be 00 04 00 00       	mov    $0x400,%esi
  404a0b:	6a 05                	push   $0x5
  404a0d:	e8 fc 01 00 00       	call   0x404c0e
  404a12:	39 7d f8             	cmp    %edi,-0x8(%ebp)
  404a15:	74 19                	je     0x404a30
  404a17:	8b 55 d8             	mov    -0x28(%ebp),%edx
  404a1a:	33 c9                	xor    %ecx,%ecx
  404a1c:	3b d1                	cmp    %ecx,%edx
  404a1e:	77 10                	ja     0x404a30
  404a20:	72 07                	jb     0x404a29
  404a22:	8b 4d d4             	mov    -0x2c(%ebp),%ecx
  404a25:	3b c8                	cmp    %eax,%ecx
  404a27:	73 07                	jae    0x404a30
  404a29:	c7 45 fc 02 00 00 00 	movl   $0x2,-0x4(%ebp)
  404a30:	8b 0d 1c 92 42 00    	mov    0x42921c,%ecx
  404a36:	39 79 10             	cmp    %edi,0x10(%ecx)
  404a39:	74 30                	je     0x404a6b
  404a3b:	50                   	push   %eax
  404a3c:	6a fb                	push   $0xfffffffb
  404a3e:	68 ff 03 00 00       	push   $0x3ff
  404a43:	e8 ae 01 00 00       	call   0x404bf6
  404a48:	39 7d f8             	cmp    %edi,-0x8(%ebp)
  404a4b:	74 10                	je     0x404a5d
  404a4d:	ff 75 d8             	pushl  -0x28(%ebp)
  404a50:	ff 75 d4             	pushl  -0x2c(%ebp)
  404a53:	6a fc                	push   $0xfffffffc
  404a55:	56                   	push   %esi
  404a56:	e8 d2 00 00 00       	call   0x404b2d
  404a5b:	eb 0e                	jmp    0x404a6b
  404a5d:	68 e8 16 42 00       	push   $0x4216e8
  404a62:	56                   	push   %esi
  404a63:	ff 75 08             	pushl  0x8(%ebp)
  404a66:	e8 ca 0e 00 00       	call   0x405935
  404a6b:	8b 45 fc             	mov    -0x4(%ebp),%eax
  404a6e:	3b c7                	cmp    %edi,%eax
  404a70:	a3 e4 a2 42 00       	mov    %eax,0x42a2e4
  404a75:	75 0a                	jne    0x404a81
  404a77:	6a 07                	push   $0x7
  404a79:	e8 8d c9 ff ff       	call   0x40140b
  404a7e:	89 45 fc             	mov    %eax,-0x4(%ebp)
  404a81:	8b 45 e4             	mov    -0x1c(%ebp),%eax
  404a84:	85 70 14             	test   %esi,0x14(%eax)
  404a87:	74 03                	je     0x404a8c
  404a89:	89 7d fc             	mov    %edi,-0x4(%ebp)
  404a8c:	33 c0                	xor    %eax,%eax
  404a8e:	39 7d fc             	cmp    %edi,-0x4(%ebp)
  404a91:	0f 94 c0             	sete   %al
  404a94:	50                   	push   %eax
  404a95:	e8 5e f8 ff ff       	call   0x4042f8
  404a9a:	39 7d fc             	cmp    %edi,-0x4(%ebp)
  404a9d:	75 0d                	jne    0x404aac
  404a9f:	39 3d 18 37 42 00    	cmp    %edi,0x423718
  404aa5:	75 05                	jne    0x404aac
  404aa7:	e8 5a fc ff ff       	call   0x404706
  404aac:	89 3d 18 37 42 00    	mov    %edi,0x423718
  404ab2:	ff 75 14             	pushl  0x14(%ebp)
  404ab5:	ff 75 10             	pushl  0x10(%ebp)
  404ab8:	ff 75 0c             	pushl  0xc(%ebp)
  404abb:	e8 7d f8 ff ff       	call   0x40433d
  404ac0:	5f                   	pop    %edi
  404ac1:	5e                   	pop    %esi
  404ac2:	5b                   	pop    %ebx
  404ac3:	c9                   	leave  
  404ac4:	c2 10 00             	ret    $0x10
  404ac7:	55                   	push   %ebp
  404ac8:	8b ec                	mov    %esp,%ebp
  404aca:	83 7d 0c 01          	cmpl   $0x1,0xc(%ebp)
  404ace:	56                   	push   %esi
  404acf:	8b 35 20 82 40 00    	mov    0x408220,%esi
  404ad5:	75 1c                	jne    0x404af3
  404ad7:	ff 75 14             	pushl  0x14(%ebp)
  404ada:	68 fb 03 00 00       	push   $0x3fb
  404adf:	e8 57 0e 00 00       	call   0x40593b
  404ae4:	ff 75 14             	pushl  0x14(%ebp)
  404ae7:	6a 01                	push   $0x1
  404ae9:	68 67 04 00 00       	push   $0x467
  404aee:	ff 75 08             	pushl  0x8(%ebp)
  404af1:	ff d6                	call   *%esi
  404af3:	83 7d 0c 02          	cmpl   $0x2,0xc(%ebp)
  404af7:	75 2d                	jne    0x404b26
  404af9:	ff 75 14             	pushl  0x14(%ebp)
  404afc:	ff 75 10             	pushl  0x10(%ebp)
  404aff:	ff 15 80 81 40 00    	call   *0x408180
  404b05:	85 c0                	test   %eax,%eax
  404b07:	74 0e                	je     0x404b17
  404b09:	6a 07                	push   $0x7
  404b0b:	e8 fb c8 ff ff       	call   0x40140b
  404b10:	85 c0                	test   %eax,%eax
  404b12:	75 03                	jne    0x404b17
  404b14:	40                   	inc    %eax
  404b15:	eb 02                	jmp    0x404b19
  404b17:	33 c0                	xor    %eax,%eax
  404b19:	50                   	push   %eax
  404b1a:	6a 00                	push   $0x0
  404b1c:	68 65 04 00 00       	push   $0x465
  404b21:	ff 75 08             	pushl  0x8(%ebp)
  404b24:	ff d6                	call   *%esi
  404b26:	33 c0                	xor    %eax,%eax
  404b28:	5e                   	pop    %esi
  404b29:	5d                   	pop    %ebp
  404b2a:	c2 10 00             	ret    $0x10
  404b2d:	55                   	push   %ebp
  404b2e:	8b ec                	mov    %esp,%ebp
  404b30:	81 ec 80 00 00 00    	sub    $0x80,%esp
  404b36:	8b 45 14             	mov    0x14(%ebp),%eax
  404b39:	53                   	push   %ebx
  404b3a:	56                   	push   %esi
  404b3b:	8b 75 10             	mov    0x10(%ebp),%esi
  404b3e:	57                   	push   %edi
  404b3f:	6a dc                	push   $0xffffffdc
  404b41:	85 c0                	test   %eax,%eax
  404b43:	5b                   	pop    %ebx
  404b44:	74 0b                	je     0x404b51
  404b46:	0f ac c6 14          	shrd   $0x14,%eax,%esi
  404b4a:	c1 e8 14             	shr    $0x14,%eax
  404b4d:	33 ff                	xor    %edi,%edi
  404b4f:	eb 4e                	jmp    0x404b9f
  404b51:	6a 14                	push   $0x14
  404b53:	81 fe 00 00 10 00    	cmp    $0x100000,%esi
  404b59:	59                   	pop    %ecx
  404b5a:	8b c6                	mov    %esi,%eax
  404b5c:	73 06                	jae    0x404b64
  404b5e:	6a 0a                	push   $0xa
  404b60:	59                   	pop    %ecx
  404b61:	6a dd                	push   $0xffffffdd
  404b63:	5b                   	pop    %ebx
  404b64:	81 fe 00 04 00 00    	cmp    $0x400,%esi
  404b6a:	73 05                	jae    0x404b71
  404b6c:	6a de                	push   $0xffffffde
  404b6e:	33 c9                	xor    %ecx,%ecx
  404b70:	5b                   	pop    %ebx
  404b71:	81 fe 33 33 ff ff    	cmp    $0xffff3333,%esi
  404b77:	73 0d                	jae    0x404b86
  404b79:	33 c0                	xor    %eax,%eax
  404b7b:	6a 14                	push   $0x14
  404b7d:	40                   	inc    %eax
  404b7e:	5f                   	pop    %edi
  404b7f:	d3 e0                	shl    %cl,%eax
  404b81:	99                   	cltd   
  404b82:	f7 ff                	idiv   %edi
  404b84:	03 c6                	add    %esi,%eax
  404b86:	8b f0                	mov    %eax,%esi
  404b88:	25 ff ff ff 00       	and    $0xffffff,%eax
  404b8d:	6a 0a                	push   $0xa
  404b8f:	33 d2                	xor    %edx,%edx
  404b91:	8d 04 80             	lea    (%eax,%eax,4),%eax
  404b94:	03 c0                	add    %eax,%eax
  404b96:	d3 e8                	shr    %cl,%eax
  404b98:	d3 ee                	shr    %cl,%esi
  404b9a:	59                   	pop    %ecx
  404b9b:	f7 f1                	div    %ecx
  404b9d:	8b fa                	mov    %edx,%edi
  404b9f:	8d 45 c0             	lea    -0x40(%ebp),%eax
  404ba2:	6a df                	push   $0xffffffdf
  404ba4:	50                   	push   %eax
  404ba5:	e8 8a 16 00 00       	call   0x406234
  404baa:	50                   	push   %eax
  404bab:	8d 45 80             	lea    -0x80(%ebp),%eax
  404bae:	53                   	push   %ebx
  404baf:	50                   	push   %eax
  404bb0:	e8 7f 16 00 00       	call   0x406234
  404bb5:	50                   	push   %eax
  404bb6:	57                   	push   %edi
  404bb7:	56                   	push   %esi
  404bb8:	68 d4 a3 40 00       	push   $0x40a3d4
  404bbd:	ff 75 0c             	pushl  0xc(%ebp)
  404bc0:	be 28 37 42 00       	mov    $0x423728,%esi
  404bc5:	56                   	push   %esi
  404bc6:	e8 69 16 00 00       	call   0x406234
  404bcb:	56                   	push   %esi
  404bcc:	8b f8                	mov    %eax,%edi
  404bce:	e8 55 16 00 00       	call   0x406228
  404bd3:	8d 04 47             	lea    (%edi,%eax,2),%eax
  404bd6:	50                   	push   %eax
  404bd7:	ff 15 e0 81 40 00    	call   *0x4081e0
  404bdd:	83 c4 18             	add    $0x18,%esp
  404be0:	56                   	push   %esi
  404be1:	ff 75 08             	pushl  0x8(%ebp)
  404be4:	ff 35 18 92 42 00    	pushl  0x429218
  404bea:	e8 46 0d 00 00       	call   0x405935
  404bef:	5f                   	pop    %edi
  404bf0:	5e                   	pop    %esi
  404bf1:	5b                   	pop    %ebx
  404bf2:	c9                   	leave  
  404bf3:	c2 10 00             	ret    $0x10
  404bf6:	8b 44 24 0c          	mov    0xc(%esp),%eax
  404bfa:	33 c9                	xor    %ecx,%ecx
  404bfc:	51                   	push   %ecx
  404bfd:	50                   	push   %eax
  404bfe:	ff 74 24 10          	pushl  0x10(%esp)
  404c02:	ff 74 24 10          	pushl  0x10(%esp)
  404c06:	e8 22 ff ff ff       	call   0x404b2d
  404c0b:	c2 0c 00             	ret    $0xc
  404c0e:	8b 15 6c a2 42 00    	mov    0x42a26c,%edx
  404c14:	8b 0d 68 a2 42 00    	mov    0x42a268,%ecx
  404c1a:	33 c0                	xor    %eax,%eax
  404c1c:	85 d2                	test   %edx,%edx
  404c1e:	74 18                	je     0x404c38
  404c20:	56                   	push   %esi
  404c21:	f6 41 08 01          	testb  $0x1,0x8(%ecx)
  404c25:	74 07                	je     0x404c2e
  404c27:	8b 74 24 08          	mov    0x8(%esp),%esi
  404c2b:	03 04 b1             	add    (%ecx,%esi,4),%eax
  404c2e:	81 c1 18 08 00 00    	add    $0x818,%ecx
  404c34:	4a                   	dec    %edx
  404c35:	75 ea                	jne    0x404c21
  404c37:	5e                   	pop    %esi
  404c38:	c2 04 00             	ret    $0x4
  404c3b:	55                   	push   %ebp
  404c3c:	8b ec                	mov    %esp,%ebp
  404c3e:	83 ec 38             	sub    $0x38,%esp
  404c41:	56                   	push   %esi
  404c42:	8b 35 20 82 40 00    	mov    0x408220,%esi
  404c48:	57                   	push   %edi
  404c49:	8b 7d 08             	mov    0x8(%ebp),%edi
  404c4c:	6a 00                	push   $0x0
  404c4e:	6a 09                	push   $0x9
  404c50:	68 0a 11 00 00       	push   $0x110a
  404c55:	57                   	push   %edi
  404c56:	ff d6                	call   *%esi
  404c58:	83 7d 0c 00          	cmpl   $0x0,0xc(%ebp)
  404c5c:	74 3c                	je     0x404c9a
  404c5e:	ff 15 c0 81 40 00    	call   *0x4081c0
  404c64:	0f bf c8             	movswl %ax,%ecx
  404c67:	c1 e8 10             	shr    $0x10,%eax
  404c6a:	0f bf c0             	movswl %ax,%eax
  404c6d:	89 45 f4             	mov    %eax,-0xc(%ebp)
  404c70:	8d 45 f0             	lea    -0x10(%ebp),%eax
  404c73:	50                   	push   %eax
  404c74:	57                   	push   %edi
  404c75:	89 4d f0             	mov    %ecx,-0x10(%ebp)
  404c78:	ff 15 e4 81 40 00    	call   *0x4081e4
  404c7e:	8d 45 f0             	lea    -0x10(%ebp),%eax
  404c81:	50                   	push   %eax
  404c82:	6a 00                	push   $0x0
  404c84:	68 11 11 00 00       	push   $0x1111
  404c89:	57                   	push   %edi
  404c8a:	ff d6                	call   *%esi
  404c8c:	f6 45 f8 66          	testb  $0x66,-0x8(%ebp)
  404c90:	75 05                	jne    0x404c97
  404c92:	83 c8 ff             	or     $0xffffffff,%eax
  404c95:	eb 1e                	jmp    0x404cb5
  404c97:	8b 45 fc             	mov    -0x4(%ebp),%eax
  404c9a:	89 45 cc             	mov    %eax,-0x34(%ebp)
  404c9d:	8d 45 c8             	lea    -0x38(%ebp),%eax
  404ca0:	50                   	push   %eax
  404ca1:	6a 00                	push   $0x0
  404ca3:	68 3e 11 00 00       	push   $0x113e
  404ca8:	57                   	push   %edi
  404ca9:	c7 45 c8 04 00 00 00 	movl   $0x4,-0x38(%ebp)
  404cb0:	ff d6                	call   *%esi
  404cb2:	8b 45 ec             	mov    -0x14(%ebp),%eax
  404cb5:	5f                   	pop    %edi
  404cb6:	5e                   	pop    %esi
  404cb7:	c9                   	leave  
  404cb8:	c2 08 00             	ret    $0x8
  404cbb:	56                   	push   %esi
  404cbc:	57                   	push   %edi
  404cbd:	be 00 b0 42 00       	mov    $0x42b000,%esi
  404cc2:	bf 28 37 42 00       	mov    $0x423728,%edi
  404cc7:	56                   	push   %esi
  404cc8:	57                   	push   %edi
  404cc9:	e8 44 15 00 00       	call   0x406212
  404cce:	ff 74 24 10          	pushl  0x10(%esp)
  404cd2:	56                   	push   %esi
  404cd3:	e8 81 14 00 00       	call   0x406159
  404cd8:	ff 74 24 0c          	pushl  0xc(%esp)
  404cdc:	e8 2a c7 ff ff       	call   0x40140b
  404ce1:	57                   	push   %edi
  404ce2:	56                   	push   %esi
  404ce3:	e8 2a 15 00 00       	call   0x406212
  404ce8:	5f                   	pop    %edi
  404ce9:	5e                   	pop    %esi
  404cea:	c2 08 00             	ret    $0x8
  404ced:	55                   	push   %ebp
  404cee:	8b ec                	mov    %esp,%ebp
  404cf0:	83 ec 50             	sub    $0x50,%esp
  404cf3:	53                   	push   %ebx
  404cf4:	56                   	push   %esi
  404cf5:	8b 35 6c 82 40 00    	mov    0x40826c,%esi
  404cfb:	57                   	push   %edi
  404cfc:	8b 7d 08             	mov    0x8(%ebp),%edi
  404cff:	68 f9 03 00 00       	push   $0x3f9
  404d04:	57                   	push   %edi
  404d05:	ff d6                	call   *%esi
  404d07:	68 08 04 00 00       	push   $0x408
  404d0c:	57                   	push   %edi
  404d0d:	89 45 f8             	mov    %eax,-0x8(%ebp)
  404d10:	ff d6                	call   *%esi
  404d12:	89 45 fc             	mov    %eax,-0x4(%ebp)
  404d15:	a1 68 a2 42 00       	mov    0x42a268,%eax
  404d1a:	8b 35 20 82 40 00    	mov    0x408220,%esi
  404d20:	89 45 f0             	mov    %eax,-0x10(%ebp)
  404d23:	a1 50 a2 42 00       	mov    0x42a250,%eax
  404d28:	33 db                	xor    %ebx,%ebx
  404d2a:	05 94 00 00 00       	add    $0x94,%eax
  404d2f:	81 7d 0c 10 01 00 00 	cmpl   $0x110,0xc(%ebp)
  404d36:	89 45 ec             	mov    %eax,-0x14(%ebp)
  404d39:	0f 85 1b 02 00 00    	jne    0x404f5a
  404d3f:	a1 6c a2 42 00       	mov    0x42a26c,%eax
  404d44:	89 5d e4             	mov    %ebx,-0x1c(%ebp)
  404d47:	c1 e0 02             	shl    $0x2,%eax
  404d4a:	50                   	push   %eax
  404d4b:	6a 40                	push   $0x40
  404d4d:	c7 45 f4 02 00 00 00 	movl   $0x2,-0xc(%ebp)
  404d54:	89 3d a0 a2 42 00    	mov    %edi,0x42a2a0
  404d5a:	ff 15 0c 81 40 00    	call   *0x40810c
  404d60:	6a 6e                	push   $0x6e
  404d62:	a3 20 37 42 00       	mov    %eax,0x423720
  404d67:	ff 35 40 a2 42 00    	pushl  0x42a240
  404d6d:	ff 15 c4 81 40 00    	call   *0x4081c4
  404d73:	83 0d 14 37 42 00 ff 	orl    $0xffffffff,0x423714
  404d7a:	68 e5 52 40 00       	push   $0x4052e5
  404d7f:	6a fc                	push   $0xfffffffc
  404d81:	8b f8                	mov    %eax,%edi
  404d83:	ff 75 fc             	pushl  -0x4(%ebp)
  404d86:	ff 15 74 82 40 00    	call   *0x408274
  404d8c:	53                   	push   %ebx
  404d8d:	6a 06                	push   $0x6
  404d8f:	6a 21                	push   $0x21
  404d91:	6a 10                	push   $0x10
  404d93:	6a 10                	push   $0x10
  404d95:	a3 1c 37 42 00       	mov    %eax,0x42371c
  404d9a:	ff 15 44 80 40 00    	call   *0x408044
  404da0:	68 ff 00 ff 00       	push   $0xff00ff
  404da5:	57                   	push   %edi
  404da6:	50                   	push   %eax
  404da7:	a3 0c 37 42 00       	mov    %eax,0x42370c
  404dac:	ff 15 38 80 40 00    	call   *0x408038
  404db2:	ff 35 0c 37 42 00    	pushl  0x42370c
  404db8:	6a 02                	push   $0x2
  404dba:	68 09 11 00 00       	push   $0x1109
  404dbf:	ff 75 fc             	pushl  -0x4(%ebp)
  404dc2:	ff d6                	call   *%esi
  404dc4:	53                   	push   %ebx
  404dc5:	53                   	push   %ebx
  404dc6:	68 1c 11 00 00       	push   $0x111c
  404dcb:	ff 75 fc             	pushl  -0x4(%ebp)
  404dce:	ff d6                	call   *%esi
  404dd0:	83 f8 10             	cmp    $0x10,%eax
  404dd3:	7d 0d                	jge    0x404de2
  404dd5:	53                   	push   %ebx
  404dd6:	6a 10                	push   $0x10
  404dd8:	68 1b 11 00 00       	push   $0x111b
  404ddd:	ff 75 fc             	pushl  -0x4(%ebp)
  404de0:	ff d6                	call   *%esi
  404de2:	57                   	push   %edi
  404de3:	ff 15 5c 80 40 00    	call   *0x40805c
  404de9:	33 ff                	xor    %edi,%edi
  404deb:	8b 45 ec             	mov    -0x14(%ebp),%eax
  404dee:	8b 04 b8             	mov    (%eax,%edi,4),%eax
  404df1:	3b c3                	cmp    %ebx,%eax
  404df3:	74 27                	je     0x404e1c
  404df5:	83 ff 20             	cmp    $0x20,%edi
  404df8:	74 03                	je     0x404dfd
  404dfa:	89 5d f4             	mov    %ebx,-0xc(%ebp)
  404dfd:	50                   	push   %eax
  404dfe:	53                   	push   %ebx
  404dff:	e8 30 14 00 00       	call   0x406234
  404e04:	50                   	push   %eax
  404e05:	53                   	push   %ebx
  404e06:	68 43 01 00 00       	push   $0x143
  404e0b:	ff 75 f8             	pushl  -0x8(%ebp)
  404e0e:	ff d6                	call   *%esi
  404e10:	57                   	push   %edi
  404e11:	50                   	push   %eax
  404e12:	68 51 01 00 00       	push   $0x151
  404e17:	ff 75 f8             	pushl  -0x8(%ebp)
  404e1a:	ff d6                	call   *%esi
  404e1c:	47                   	inc    %edi
  404e1d:	83 ff 21             	cmp    $0x21,%edi
  404e20:	7c c9                	jl     0x404deb
  404e22:	8b 7d 14             	mov    0x14(%ebp),%edi
  404e25:	8b 5d f4             	mov    -0xc(%ebp),%ebx
  404e28:	ff 74 9f 30          	pushl  0x30(%edi,%ebx,4)
  404e2c:	6a 15                	push   $0x15
  404e2e:	ff 75 08             	pushl  0x8(%ebp)
  404e31:	e8 a0 f4 ff ff       	call   0x4042d6
  404e36:	ff 74 9f 34          	pushl  0x34(%edi,%ebx,4)
  404e3a:	6a 16                	push   $0x16
  404e3c:	ff 75 08             	pushl  0x8(%ebp)
  404e3f:	e8 92 f4 ff ff       	call   0x4042d6
  404e44:	33 ff                	xor    %edi,%edi
  404e46:	33 db                	xor    %ebx,%ebx
  404e48:	39 3d 6c a2 42 00    	cmp    %edi,0x42a26c
  404e4e:	0f 8e c5 00 00 00    	jle    0x404f19
  404e54:	8b 45 f0             	mov    -0x10(%ebp),%eax
  404e57:	8d 50 08             	lea    0x8(%eax),%edx
  404e5a:	89 55 e8             	mov    %edx,-0x18(%ebp)
  404e5d:	8d 42 10             	lea    0x10(%edx),%eax
  404e60:	66 83 38 00          	cmpw   $0x0,(%eax)
  404e64:	0f 84 90 00 00 00    	je     0x404efa
  404e6a:	89 45 c8             	mov    %eax,-0x38(%ebp)
  404e6d:	8b 02                	mov    (%edx),%eax
  404e6f:	6a 20                	push   $0x20
  404e71:	8b d0                	mov    %eax,%edx
  404e73:	59                   	pop    %ecx
  404e74:	89 5d b0             	mov    %ebx,-0x50(%ebp)
  404e77:	23 d1                	and    %ecx,%edx
  404e79:	c7 45 b4 02 00 ff ff 	movl   $0xffff0002,-0x4c(%ebp)
  404e80:	a8 02                	test   $0x2,%al
  404e82:	c7 45 b8 0d 00 00 00 	movl   $0xd,-0x48(%ebp)
  404e89:	89 4d c4             	mov    %ecx,-0x3c(%ebp)
  404e8c:	89 7d dc             	mov    %edi,-0x24(%ebp)
  404e8f:	89 55 c0             	mov    %edx,-0x40(%ebp)
  404e92:	74 38                	je     0x404ecc
  404e94:	8d 45 b0             	lea    -0x50(%ebp),%eax
  404e97:	c7 45 b8 4d 00 00 00 	movl   $0x4d,-0x48(%ebp)
  404e9e:	50                   	push   %eax
  404e9f:	6a 00                	push   $0x0
  404ea1:	68 32 11 00 00       	push   $0x1132
  404ea6:	c7 45 d8 01 00 00 00 	movl   $0x1,-0x28(%ebp)
  404ead:	ff 75 fc             	pushl  -0x4(%ebp)
  404eb0:	ff d6                	call   *%esi
  404eb2:	8b 0d 20 37 42 00    	mov    0x423720,%ecx
  404eb8:	c7 45 e4 01 00 00 00 	movl   $0x1,-0x1c(%ebp)
  404ebf:	89 04 b9             	mov    %eax,(%ecx,%edi,4)
  404ec2:	a1 20 37 42 00       	mov    0x423720,%eax
  404ec7:	8b 1c b8             	mov    (%eax,%edi,4),%ebx
  404eca:	eb 2e                	jmp    0x404efa
  404ecc:	a8 04                	test   $0x4,%al
  404ece:	74 11                	je     0x404ee1
  404ed0:	53                   	push   %ebx
  404ed1:	6a 03                	push   $0x3
  404ed3:	68 0a 11 00 00       	push   $0x110a
  404ed8:	ff 75 fc             	pushl  -0x4(%ebp)
  404edb:	ff d6                	call   *%esi
  404edd:	8b d8                	mov    %eax,%ebx
  404edf:	eb 19                	jmp    0x404efa
  404ee1:	8d 45 b0             	lea    -0x50(%ebp),%eax
  404ee4:	50                   	push   %eax
  404ee5:	6a 00                	push   $0x0
  404ee7:	68 32 11 00 00       	push   $0x1132
  404eec:	ff 75 fc             	pushl  -0x4(%ebp)
  404eef:	ff d6                	call   *%esi
  404ef1:	8b 0d 20 37 42 00    	mov    0x423720,%ecx
  404ef7:	89 04 b9             	mov    %eax,(%ecx,%edi,4)
  404efa:	8b 55 e8             	mov    -0x18(%ebp),%edx
  404efd:	47                   	inc    %edi
  404efe:	81 c2 18 08 00 00    	add    $0x818,%edx
  404f04:	3b 3d 6c a2 42 00    	cmp    0x42a26c,%edi
  404f0a:	89 55 e8             	mov    %edx,-0x18(%ebp)
  404f0d:	0f 8c 4a ff ff ff    	jl     0x404e5d
  404f13:	83 7d e4 00          	cmpl   $0x0,-0x1c(%ebp)
  404f17:	75 19                	jne    0x404f32
  404f19:	6a f0                	push   $0xfffffff0
  404f1b:	ff 75 fc             	pushl  -0x4(%ebp)
  404f1e:	ff 15 b0 81 40 00    	call   *0x4081b0
  404f24:	24 fb                	and    $0xfb,%al
  404f26:	50                   	push   %eax
  404f27:	6a f0                	push   $0xfffffff0
  404f29:	ff 75 fc             	pushl  -0x4(%ebp)
  404f2c:	ff 15 74 82 40 00    	call   *0x408274
  404f32:	83 7d f4 00          	cmpl   $0x0,-0xc(%ebp)
  404f36:	75 18                	jne    0x404f50
  404f38:	6a 05                	push   $0x5
  404f3a:	ff 75 f8             	pushl  -0x8(%ebp)
  404f3d:	ff 15 68 82 40 00    	call   *0x408268
  404f43:	ff 75 f8             	pushl  -0x8(%ebp)
  404f46:	e8 c0 f3 ff ff       	call   0x40430b
  404f4b:	e9 80 03 00 00       	jmp    0x4052d0
  404f50:	ff 75 fc             	pushl  -0x4(%ebp)
  404f53:	e8 b3 f3 ff ff       	call   0x40430b
  404f58:	33 db                	xor    %ebx,%ebx
  404f5a:	81 7d 0c 05 04 00 00 	cmpl   $0x405,0xc(%ebp)
  404f61:	75 12                	jne    0x404f75
  404f63:	33 c9                	xor    %ecx,%ecx
  404f65:	89 5d 10             	mov    %ebx,0x10(%ebp)
  404f68:	41                   	inc    %ecx
  404f69:	c7 45 0c 0f 04 00 00 	movl   $0x40f,0xc(%ebp)
  404f70:	89 4d 14             	mov    %ecx,0x14(%ebp)
  404f73:	eb 03                	jmp    0x404f78
  404f75:	8b 4d 14             	mov    0x14(%ebp),%ecx
  404f78:	83 7d 0c 4e          	cmpl   $0x4e,0xc(%ebp)
  404f7c:	b8 13 04 00 00       	mov    $0x413,%eax
  404f81:	74 09                	je     0x404f8c
  404f83:	39 45 0c             	cmp    %eax,0xc(%ebp)
  404f86:	0f 85 e4 00 00 00    	jne    0x405070
  404f8c:	39 45 0c             	cmp    %eax,0xc(%ebp)
  404f8f:	89 4d f4             	mov    %ecx,-0xc(%ebp)
  404f92:	74 0d                	je     0x404fa1
  404f94:	81 79 04 08 04 00 00 	cmpl   $0x408,0x4(%ecx)
  404f9b:	0f 85 cf 00 00 00    	jne    0x405070
  404fa1:	f6 05 59 a2 42 00 02 	testb  $0x2,0x42a259
  404fa8:	75 73                	jne    0x40501d
  404faa:	39 45 0c             	cmp    %eax,0xc(%ebp)
  404fad:	74 09                	je     0x404fb8
  404faf:	8b 4d 14             	mov    0x14(%ebp),%ecx
  404fb2:	83 79 08 fe          	cmpl   $0xfffffffe,0x8(%ecx)
  404fb6:	75 65                	jne    0x40501d
  404fb8:	33 c9                	xor    %ecx,%ecx
  404fba:	39 45 0c             	cmp    %eax,0xc(%ebp)
  404fbd:	0f 95 c1             	setne  %cl
  404fc0:	51                   	push   %ecx
  404fc1:	ff 75 fc             	pushl  -0x4(%ebp)
  404fc4:	e8 72 fc ff ff       	call   0x404c3b
  404fc9:	8b f8                	mov    %eax,%edi
  404fcb:	3b fb                	cmp    %ebx,%edi
  404fcd:	7c 4e                	jl     0x40501d
  404fcf:	69 c0 18 08 00 00    	imul   $0x818,%eax,%eax
  404fd5:	8b 4d f0             	mov    -0x10(%ebp),%ecx
  404fd8:	8d 4c 08 08          	lea    0x8(%eax,%ecx,1),%ecx
  404fdc:	8b 01                	mov    (%ecx),%eax
  404fde:	a8 10                	test   $0x10,%al
  404fe0:	75 3b                	jne    0x40501d
  404fe2:	a8 40                	test   $0x40,%al
  404fe4:	74 11                	je     0x404ff7
  404fe6:	35 80 00 00 00       	xor    $0x80,%eax
  404feb:	84 c0                	test   %al,%al
  404fed:	79 04                	jns    0x404ff3
  404fef:	0c 01                	or     $0x1,%al
  404ff1:	eb 07                	jmp    0x404ffa
  404ff3:	24 fe                	and    $0xfe,%al
  404ff5:	eb 03                	jmp    0x404ffa
  404ff7:	83 f0 01             	xor    $0x1,%eax
  404ffa:	57                   	push   %edi
  404ffb:	89 01                	mov    %eax,(%ecx)
  404ffd:	e8 7b c1 ff ff       	call   0x40117d
  405002:	a1 58 a2 42 00       	mov    0x42a258,%eax
  405007:	47                   	inc    %edi
  405008:	f7 d0                	not    %eax
  40500a:	c1 e8 08             	shr    $0x8,%eax
  40500d:	83 e0 01             	and    $0x1,%eax
  405010:	89 7d 10             	mov    %edi,0x10(%ebp)
  405013:	89 45 14             	mov    %eax,0x14(%ebp)
  405016:	c7 45 0c 0f 04 00 00 	movl   $0x40f,0xc(%ebp)
  40501d:	39 5d f4             	cmp    %ebx,-0xc(%ebp)
  405020:	74 4e                	je     0x405070
  405022:	8b 45 f4             	mov    -0xc(%ebp),%eax
  405025:	81 78 08 3d fe ff ff 	cmpl   $0xfffffe3d,0x8(%eax)
  40502c:	75 0e                	jne    0x40503c
  40502e:	ff 70 5c             	pushl  0x5c(%eax)
  405031:	53                   	push   %ebx
  405032:	68 19 04 00 00       	push   $0x419
  405037:	ff 75 fc             	pushl  -0x4(%ebp)
  40503a:	ff d6                	call   *%esi
  40503c:	8b 45 f4             	mov    -0xc(%ebp),%eax
  40503f:	81 78 08 39 fe ff ff 	cmpl   $0xfffffe39,0x8(%eax)
  405046:	75 28                	jne    0x405070
  405048:	83 78 0c 02          	cmpl   $0x2,0xc(%eax)
  40504c:	8b 4d f0             	mov    -0x10(%ebp),%ecx
  40504f:	8b 40 5c             	mov    0x5c(%eax),%eax
  405052:	75 0f                	jne    0x405063
  405054:	69 c0 18 08 00 00    	imul   $0x818,%eax,%eax
  40505a:	8d 44 08 08          	lea    0x8(%eax,%ecx,1),%eax
  40505e:	83 08 20             	orl    $0x20,(%eax)
  405061:	eb 0d                	jmp    0x405070
  405063:	69 c0 18 08 00 00    	imul   $0x818,%eax,%eax
  405069:	8d 44 08 08          	lea    0x8(%eax,%ecx,1),%eax
  40506d:	83 20 df             	andl   $0xffffffdf,(%eax)
  405070:	81 7d 0c 11 01 00 00 	cmpl   $0x111,0xc(%ebp)
  405077:	75 6f                	jne    0x4050e8
  405079:	66 81 7d 10 f9 03    	cmpw   $0x3f9,0x10(%ebp)
  40507f:	0f 85 4b 02 00 00    	jne    0x4052d0
  405085:	8b 45 10             	mov    0x10(%ebp),%eax
  405088:	c1 e8 10             	shr    $0x10,%eax
  40508b:	66 3d 01 00          	cmp    $0x1,%ax
  40508f:	0f 85 3b 02 00 00    	jne    0x4052d0
  405095:	53                   	push   %ebx
  405096:	53                   	push   %ebx
  405097:	68 47 01 00 00       	push   $0x147
  40509c:	ff 75 f8             	pushl  -0x8(%ebp)
  40509f:	ff d6                	call   *%esi
  4050a1:	83 f8 ff             	cmp    $0xffffffff,%eax
  4050a4:	0f 84 26 02 00 00    	je     0x4052d0
  4050aa:	53                   	push   %ebx
  4050ab:	50                   	push   %eax
  4050ac:	68 50 01 00 00       	push   $0x150
  4050b1:	ff 75 f8             	pushl  -0x8(%ebp)
  4050b4:	ff d6                	call   *%esi
  4050b6:	8b f8                	mov    %eax,%edi
  4050b8:	83 ff ff             	cmp    $0xffffffff,%edi
  4050bb:	74 08                	je     0x4050c5
  4050bd:	8b 45 ec             	mov    -0x14(%ebp),%eax
  4050c0:	39 1c b8             	cmp    %ebx,(%eax,%edi,4)
  4050c3:	75 03                	jne    0x4050c8
  4050c5:	6a 20                	push   $0x20
  4050c7:	5f                   	pop    %edi
  4050c8:	57                   	push   %edi
  4050c9:	e8 cb c1 ff ff       	call   0x401299
  4050ce:	57                   	push   %edi
  4050cf:	53                   	push   %ebx
  4050d0:	68 20 04 00 00       	push   $0x420
  4050d5:	ff 75 08             	pushl  0x8(%ebp)
  4050d8:	ff d6                	call   *%esi
  4050da:	83 4d 10 ff          	orl    $0xffffffff,0x10(%ebp)
  4050de:	89 5d 14             	mov    %ebx,0x14(%ebp)
  4050e1:	c7 45 0c 0f 04 00 00 	movl   $0x40f,0xc(%ebp)
  4050e8:	b8 00 02 00 00       	mov    $0x200,%eax
  4050ed:	39 45 0c             	cmp    %eax,0xc(%ebp)
  4050f0:	75 08                	jne    0x4050fa
  4050f2:	53                   	push   %ebx
  4050f3:	53                   	push   %ebx
  4050f4:	50                   	push   %eax
  4050f5:	ff 75 fc             	pushl  -0x4(%ebp)
  4050f8:	ff d6                	call   *%esi
  4050fa:	81 7d 0c 0b 04 00 00 	cmpl   $0x40b,0xc(%ebp)
  405101:	75 32                	jne    0x405135
  405103:	a1 0c 37 42 00       	mov    0x42370c,%eax
  405108:	3b c3                	cmp    %ebx,%eax
  40510a:	74 07                	je     0x405113
  40510c:	50                   	push   %eax
  40510d:	ff 15 40 80 40 00    	call   *0x408040
  405113:	a1 20 37 42 00       	mov    0x423720,%eax
  405118:	3b c3                	cmp    %ebx,%eax
  40511a:	74 07                	je     0x405123
  40511c:	50                   	push   %eax
  40511d:	ff 15 08 81 40 00    	call   *0x408108
  405123:	89 1d 0c 37 42 00    	mov    %ebx,0x42370c
  405129:	89 1d 20 37 42 00    	mov    %ebx,0x423720
  40512f:	89 1d a0 a2 42 00    	mov    %ebx,0x42a2a0
  405135:	81 7d 0c 0f 04 00 00 	cmpl   $0x40f,0xc(%ebp)
  40513c:	0f 85 50 01 00 00    	jne    0x405292
  405142:	53                   	push   %ebx
  405143:	53                   	push   %ebx
  405144:	e8 a6 c0 ff ff       	call   0x4011ef
  405149:	8b 45 10             	mov    0x10(%ebp),%eax
  40514c:	3b c3                	cmp    %ebx,%eax
  40514e:	74 0e                	je     0x40515e
  405150:	83 f8 ff             	cmp    $0xffffffff,%eax
  405153:	74 01                	je     0x405156
  405155:	48                   	dec    %eax
  405156:	50                   	push   %eax
  405157:	6a 08                	push   $0x8
  405159:	e8 5d fb ff ff       	call   0x404cbb
  40515e:	39 5d 14             	cmp    %ebx,0x14(%ebp)
  405161:	74 3f                	je     0x4051a2
  405163:	ff 35 20 37 42 00    	pushl  0x423720
  405169:	e8 74 c1 ff ff       	call   0x4012e2
  40516e:	8b f8                	mov    %eax,%edi
  405170:	57                   	push   %edi
  405171:	e8 23 c1 ff ff       	call   0x401299
  405176:	33 c0                	xor    %eax,%eax
  405178:	33 c9                	xor    %ecx,%ecx
  40517a:	3b fb                	cmp    %ebx,%edi
  40517c:	7e 0e                	jle    0x40518c
  40517e:	8b 55 ec             	mov    -0x14(%ebp),%edx
  405181:	39 1c 82             	cmp    %ebx,(%edx,%eax,4)
  405184:	74 01                	je     0x405187
  405186:	41                   	inc    %ecx
  405187:	40                   	inc    %eax
  405188:	3b c7                	cmp    %edi,%eax
  40518a:	7c f2                	jl     0x40517e
  40518c:	53                   	push   %ebx
  40518d:	51                   	push   %ecx
  40518e:	68 4e 01 00 00       	push   $0x14e
  405193:	ff 75 f8             	pushl  -0x8(%ebp)
  405196:	ff d6                	call   *%esi
  405198:	89 7d 14             	mov    %edi,0x14(%ebp)
  40519b:	c7 45 0c 20 04 00 00 	movl   $0x420,0xc(%ebp)
  4051a2:	53                   	push   %ebx
  4051a3:	53                   	push   %ebx
  4051a4:	e8 46 c0 ff ff       	call   0x4011ef
  4051a9:	a1 20 37 42 00       	mov    0x423720,%eax
  4051ae:	39 1d 6c a2 42 00    	cmp    %ebx,0x42a26c
  4051b4:	89 45 e4             	mov    %eax,-0x1c(%ebp)
  4051b7:	a1 68 a2 42 00       	mov    0x42a268,%eax
  4051bc:	c7 45 c8 30 f0 00 00 	movl   $0xf030,-0x38(%ebp)
  4051c3:	89 5d f0             	mov    %ebx,-0x10(%ebp)
  4051c6:	0f 8e 9c 00 00 00    	jle    0x405268
  4051cc:	8d 78 08             	lea    0x8(%eax),%edi
  4051cf:	8b 45 e4             	mov    -0x1c(%ebp),%eax
  4051d2:	8b 4d f0             	mov    -0x10(%ebp),%ecx
  4051d5:	8b 04 88             	mov    (%eax,%ecx,4),%eax
  4051d8:	3b c3                	cmp    %ebx,%eax
  4051da:	74 74                	je     0x405250
  4051dc:	8b 0f                	mov    (%edi),%ecx
  4051de:	89 45 c0             	mov    %eax,-0x40(%ebp)
  4051e1:	f6 c5 01             	test   $0x1,%ch
  4051e4:	c7 45 bc 08 00 00 00 	movl   $0x8,-0x44(%ebp)
  4051eb:	74 11                	je     0x4051fe
  4051ed:	8d 47 10             	lea    0x10(%edi),%eax
  4051f0:	c7 45 bc 09 00 00 00 	movl   $0x9,-0x44(%ebp)
  4051f7:	89 45 cc             	mov    %eax,-0x34(%ebp)
  4051fa:	80 67 01 fe          	andb   $0xfe,0x1(%edi)
  4051fe:	f6 c1 40             	test   $0x40,%cl
  405201:	74 05                	je     0x405208
  405203:	6a 03                	push   $0x3
  405205:	58                   	pop    %eax
  405206:	eb 0e                	jmp    0x405216
  405208:	8b c1                	mov    %ecx,%eax
  40520a:	83 e0 01             	and    $0x1,%eax
  40520d:	40                   	inc    %eax
  40520e:	f6 c1 10             	test   $0x10,%cl
  405211:	74 03                	je     0x405216
  405213:	83 c0 03             	add    $0x3,%eax
  405216:	8b d1                	mov    %ecx,%edx
  405218:	ff 75 c0             	pushl  -0x40(%ebp)
  40521b:	c1 e0 0b             	shl    $0xb,%eax
  40521e:	83 e2 08             	and    $0x8,%edx
  405221:	0b c2                	or     %edx,%eax
  405223:	8b d1                	mov    %ecx,%edx
  405225:	c1 f9 05             	sar    $0x5,%ecx
  405228:	03 c0                	add    %eax,%eax
  40522a:	83 e2 20             	and    $0x20,%edx
  40522d:	83 e1 01             	and    $0x1,%ecx
  405230:	0b c2                	or     %edx,%eax
  405232:	41                   	inc    %ecx
  405233:	89 45 c4             	mov    %eax,-0x3c(%ebp)
  405236:	51                   	push   %ecx
  405237:	68 02 11 00 00       	push   $0x1102
  40523c:	ff 75 fc             	pushl  -0x4(%ebp)
  40523f:	ff d6                	call   *%esi
  405241:	8d 45 bc             	lea    -0x44(%ebp),%eax
  405244:	50                   	push   %eax
  405245:	53                   	push   %ebx
  405246:	68 3f 11 00 00       	push   $0x113f
  40524b:	ff 75 fc             	pushl  -0x4(%ebp)
  40524e:	ff d6                	call   *%esi
  405250:	ff 45 f0             	incl   -0x10(%ebp)
  405253:	81 c7 18 08 00 00    	add    $0x818,%edi
  405259:	8b 45 f0             	mov    -0x10(%ebp),%eax
  40525c:	3b 05 6c a2 42 00    	cmp    0x42a26c,%eax
  405262:	0f 8c 67 ff ff ff    	jl     0x4051cf
  405268:	6a 01                	push   $0x1
  40526a:	53                   	push   %ebx
  40526b:	ff 75 fc             	pushl  -0x4(%ebp)
  40526e:	ff 15 1c 82 40 00    	call   *0x40821c
  405274:	a1 1c 92 42 00       	mov    0x42921c,%eax
  405279:	39 58 10             	cmp    %ebx,0x10(%eax)
  40527c:	74 14                	je     0x405292
  40527e:	6a 05                	push   $0x5
  405280:	e8 89 f9 ff ff       	call   0x404c0e
  405285:	50                   	push   %eax
  405286:	6a fb                	push   $0xfffffffb
  405288:	68 ff 03 00 00       	push   $0x3ff
  40528d:	e8 64 f9 ff ff       	call   0x404bf6
  405292:	81 7d 0c 20 04 00 00 	cmpl   $0x420,0xc(%ebp)
  405299:	75 35                	jne    0x4052d0
  40529b:	f6 05 59 a2 42 00 01 	testb  $0x1,0x42a259
  4052a2:	74 2c                	je     0x4052d0
  4052a4:	33 c0                	xor    %eax,%eax
  4052a6:	83 7d 14 20          	cmpl   $0x20,0x14(%ebp)
  4052aa:	8b 35 68 82 40 00    	mov    0x408268,%esi
  4052b0:	0f 94 c0             	sete   %al
  4052b3:	c1 e0 03             	shl    $0x3,%eax
  4052b6:	8b f8                	mov    %eax,%edi
  4052b8:	57                   	push   %edi
  4052b9:	ff 75 fc             	pushl  -0x4(%ebp)
  4052bc:	ff d6                	call   *%esi
  4052be:	57                   	push   %edi
  4052bf:	68 fe 03 00 00       	push   $0x3fe
  4052c4:	ff 75 08             	pushl  0x8(%ebp)
  4052c7:	ff 15 6c 82 40 00    	call   *0x40826c
  4052cd:	50                   	push   %eax
  4052ce:	ff d6                	call   *%esi
  4052d0:	ff 75 14             	pushl  0x14(%ebp)
  4052d3:	ff 75 10             	pushl  0x10(%ebp)
  4052d6:	ff 75 0c             	pushl  0xc(%ebp)
  4052d9:	e8 5f f0 ff ff       	call   0x40433d
  4052de:	5f                   	pop    %edi
  4052df:	5e                   	pop    %esi
  4052e0:	5b                   	pop    %ebx
  4052e1:	c9                   	leave  
  4052e2:	c2 10 00             	ret    $0x10
  4052e5:	55                   	push   %ebp
  4052e6:	8b ec                	mov    %esp,%ebp
  4052e8:	53                   	push   %ebx
  4052e9:	8b 5d 0c             	mov    0xc(%ebp),%ebx
  4052ec:	81 fb 02 01 00 00    	cmp    $0x102,%ebx
  4052f2:	57                   	push   %edi
  4052f3:	75 14                	jne    0x405309
  4052f5:	83 7d 10 20          	cmpl   $0x20,0x10(%ebp)
  4052f9:	75 59                	jne    0x405354
  4052fb:	68 13 04 00 00       	push   $0x413
  405300:	e8 1d f0 ff ff       	call   0x404322
  405305:	33 c0                	xor    %eax,%eax
  405307:	eb 62                	jmp    0x40536b
  405309:	81 fb 00 02 00 00    	cmp    $0x200,%ebx
  40530f:	75 20                	jne    0x405331
  405311:	ff 75 08             	pushl  0x8(%ebp)
  405314:	ff 15 cc 81 40 00    	call   *0x4081cc
  40531a:	85 c0                	test   %eax,%eax
  40531c:	74 36                	je     0x405354
  40531e:	6a 01                	push   $0x1
  405320:	ff 75 08             	pushl  0x8(%ebp)
  405323:	e8 13 f9 ff ff       	call   0x404c3b
  405328:	8b f8                	mov    %eax,%edi
  40532a:	bb 19 04 00 00       	mov    $0x419,%ebx
  40532f:	eb 03                	jmp    0x405334
  405331:	8b 7d 14             	mov    0x14(%ebp),%edi
  405334:	81 fb 19 04 00 00    	cmp    $0x419,%ebx
  40533a:	75 1b                	jne    0x405357
  40533c:	39 3d 14 37 42 00    	cmp    %edi,0x423714
  405342:	74 13                	je     0x405357
  405344:	57                   	push   %edi
  405345:	6a 06                	push   $0x6
  405347:	89 3d 14 37 42 00    	mov    %edi,0x423714
  40534d:	e8 69 f9 ff ff       	call   0x404cbb
  405352:	eb 03                	jmp    0x405357
  405354:	8b 7d 14             	mov    0x14(%ebp),%edi
  405357:	57                   	push   %edi
  405358:	ff 75 10             	pushl  0x10(%ebp)
  40535b:	53                   	push   %ebx
  40535c:	ff 75 08             	pushl  0x8(%ebp)
  40535f:	ff 35 1c 37 42 00    	pushl  0x42371c
  405365:	ff 15 c8 81 40 00    	call   *0x4081c8
  40536b:	5f                   	pop    %edi
  40536c:	5b                   	pop    %ebx
  40536d:	5d                   	pop    %ebp
  40536e:	c2 10 00             	ret    $0x10
  405371:	55                   	push   %ebp
  405372:	8b ec                	mov    %esp,%ebp
  405374:	83 ec 30             	sub    $0x30,%esp
  405377:	a1 24 92 42 00       	mov    0x429224,%eax
  40537c:	53                   	push   %ebx
  40537d:	56                   	push   %esi
  40537e:	57                   	push   %edi
  40537f:	33 ff                	xor    %edi,%edi
  405381:	89 45 fc             	mov    %eax,-0x4(%ebp)
  405384:	3b c7                	cmp    %edi,%eax
  405386:	0f 84 b1 00 00 00    	je     0x40543d
  40538c:	8b 1d f4 a2 42 00    	mov    0x42a2f4,%ebx
  405392:	be 08 27 42 00       	mov    $0x422708,%esi
  405397:	89 5d f8             	mov    %ebx,-0x8(%ebp)
  40539a:	83 e3 01             	and    $0x1,%ebx
  40539d:	75 09                	jne    0x4053a8
  40539f:	ff 75 08             	pushl  0x8(%ebp)
  4053a2:	56                   	push   %esi
  4053a3:	e8 8c 0e 00 00       	call   0x406234
  4053a8:	56                   	push   %esi
  4053a9:	e8 7a 0e 00 00       	call   0x406228
  4053ae:	39 7d 0c             	cmp    %edi,0xc(%ebp)
  4053b1:	89 45 08             	mov    %eax,0x8(%ebp)
  4053b4:	74 1b                	je     0x4053d1
  4053b6:	ff 75 0c             	pushl  0xc(%ebp)
  4053b9:	e8 6a 0e 00 00       	call   0x406228
  4053be:	03 45 08             	add    0x8(%ebp),%eax
  4053c1:	3d 00 10 00 00       	cmp    $0x1000,%eax
  4053c6:	73 75                	jae    0x40543d
  4053c8:	ff 75 0c             	pushl  0xc(%ebp)
  4053cb:	56                   	push   %esi
  4053cc:	e8 5d 0e 00 00       	call   0x40622e
  4053d1:	f6 45 f8 04          	testb  $0x4,-0x8(%ebp)
  4053d5:	75 0d                	jne    0x4053e4
  4053d7:	56                   	push   %esi
  4053d8:	ff 35 08 92 42 00    	pushl  0x429208
  4053de:	ff 15 60 82 40 00    	call   *0x408260
  4053e4:	f6 45 f8 02          	testb  $0x2,-0x8(%ebp)
  4053e8:	75 44                	jne    0x40542e
  4053ea:	57                   	push   %edi
  4053eb:	57                   	push   %edi
  4053ec:	68 04 10 00 00       	push   $0x1004
  4053f1:	89 75 e4             	mov    %esi,-0x1c(%ebp)
  4053f4:	ff 75 fc             	pushl  -0x4(%ebp)
  4053f7:	8b 35 20 82 40 00    	mov    0x408220,%esi
  4053fd:	c7 45 d0 01 00 00 00 	movl   $0x1,-0x30(%ebp)
  405404:	ff d6                	call   *%esi
  405406:	2b c3                	sub    %ebx,%eax
  405408:	89 7d d8             	mov    %edi,-0x28(%ebp)
  40540b:	89 45 d4             	mov    %eax,-0x2c(%ebp)
  40540e:	8d 45 d0             	lea    -0x30(%ebp),%eax
  405411:	50                   	push   %eax
  405412:	b8 4d 10 00 00       	mov    $0x104d,%eax
  405417:	2b c3                	sub    %ebx,%eax
  405419:	57                   	push   %edi
  40541a:	50                   	push   %eax
  40541b:	ff 75 fc             	pushl  -0x4(%ebp)
  40541e:	ff d6                	call   *%esi
  405420:	57                   	push   %edi
  405421:	ff 75 d4             	pushl  -0x2c(%ebp)
  405424:	68 13 10 00 00       	push   $0x1013
  405429:	ff 75 fc             	pushl  -0x4(%ebp)
  40542c:	ff d6                	call   *%esi
  40542e:	3b df                	cmp    %edi,%ebx
  405430:	74 0b                	je     0x40543d
  405432:	8b 45 08             	mov    0x8(%ebp),%eax
  405435:	66 89 3c 45 08 27 42 	mov    %di,0x422708(,%eax,2)
  40543c:	00 
  40543d:	5f                   	pop    %edi
  40543e:	5e                   	pop    %esi
  40543f:	5b                   	pop    %ebx
  405440:	c9                   	leave  
  405441:	c2 08 00             	ret    $0x8
  405444:	56                   	push   %esi
  405445:	8b 35 68 a2 42 00    	mov    0x42a268,%esi
  40544b:	57                   	push   %edi
  40544c:	8b 3d 6c a2 42 00    	mov    0x42a26c,%edi
  405452:	6a 00                	push   $0x0
  405454:	ff 15 a4 82 40 00    	call   *0x4082a4
  40545a:	09 05 f8 a2 42 00    	or     %eax,0x42a2f8
  405460:	6a 00                	push   $0x0
  405462:	e8 bb ee ff ff       	call   0x404322
  405467:	85 ff                	test   %edi,%edi
  405469:	74 2b                	je     0x405496
  40546b:	83 c6 0c             	add    $0xc,%esi
  40546e:	4f                   	dec    %edi
  40546f:	f6 46 fc 01          	testb  $0x1,-0x4(%esi)
  405473:	74 0f                	je     0x405484
  405475:	ff 74 24 0c          	pushl  0xc(%esp)
  405479:	ff 36                	pushl  (%esi)
  40547b:	e8 09 bf ff ff       	call   0x401389
  405480:	85 c0                	test   %eax,%eax
  405482:	75 0c                	jne    0x405490
  405484:	81 c6 18 08 00 00    	add    $0x818,%esi
  40548a:	85 ff                	test   %edi,%edi
  40548c:	75 e0                	jne    0x40546e
  40548e:	eb 06                	jmp    0x405496
  405490:	ff 05 cc a2 42 00    	incl   0x42a2cc
  405496:	68 04 04 00 00       	push   $0x404
  40549b:	e8 82 ee ff ff       	call   0x404322
  4054a0:	ff 15 a0 82 40 00    	call   *0x4082a0
  4054a6:	a1 cc a2 42 00       	mov    0x42a2cc,%eax
  4054ab:	5f                   	pop    %edi
  4054ac:	5e                   	pop    %esi
  4054ad:	c2 04 00             	ret    $0x4
  4054b0:	55                   	push   %ebp
  4054b1:	8b ec                	mov    %esp,%ebp
  4054b3:	83 ec 40             	sub    $0x40,%esp
  4054b6:	53                   	push   %ebx
  4054b7:	56                   	push   %esi
  4054b8:	8b 35 24 92 42 00    	mov    0x429224,%esi
  4054be:	33 db                	xor    %ebx,%ebx
  4054c0:	81 7d 0c 10 01 00 00 	cmpl   $0x110,0xc(%ebp)
  4054c7:	57                   	push   %edi
  4054c8:	89 75 fc             	mov    %esi,-0x4(%ebp)
  4054cb:	0f 85 89 01 00 00    	jne    0x40565a
  4054d1:	83 4d d0 ff          	orl    $0xffffffff,-0x30(%ebp)
  4054d5:	83 4d dc ff          	orl    $0xffffffff,-0x24(%ebp)
  4054d9:	6a 02                	push   $0x2
  4054db:	33 c0                	xor    %eax,%eax
  4054dd:	5e                   	pop    %esi
  4054de:	8d 7d e0             	lea    -0x20(%ebp),%edi
  4054e1:	89 75 c8             	mov    %esi,-0x38(%ebp)
  4054e4:	89 5d cc             	mov    %ebx,-0x34(%ebp)
  4054e7:	89 5d d4             	mov    %ebx,-0x2c(%ebp)
  4054ea:	89 5d d8             	mov    %ebx,-0x28(%ebp)
  4054ed:	ab                   	stos   %eax,%es:(%edi)
  4054ee:	ab                   	stos   %eax,%es:(%edi)
  4054ef:	a1 50 a2 42 00       	mov    0x42a250,%eax
  4054f4:	8b 3d 6c 82 40 00    	mov    0x40826c,%edi
  4054fa:	68 03 04 00 00       	push   $0x403
  4054ff:	8b 48 5c             	mov    0x5c(%eax),%ecx
  405502:	8b 40 60             	mov    0x60(%eax),%eax
  405505:	ff 75 08             	pushl  0x8(%ebp)
  405508:	89 4d 0c             	mov    %ecx,0xc(%ebp)
  40550b:	89 45 10             	mov    %eax,0x10(%ebp)
  40550e:	ff d7                	call   *%edi
  405510:	68 ee 03 00 00       	push   $0x3ee
  405515:	a3 10 92 42 00       	mov    %eax,0x429210
  40551a:	ff 75 08             	pushl  0x8(%ebp)
  40551d:	ff d7                	call   *%edi
  40551f:	68 f8 03 00 00       	push   $0x3f8
  405524:	a3 08 92 42 00       	mov    %eax,0x429208
  405529:	ff 75 08             	pushl  0x8(%ebp)
  40552c:	ff d7                	call   *%edi
  40552e:	ff 35 10 92 42 00    	pushl  0x429210
  405534:	a3 24 92 42 00       	mov    %eax,0x429224
  405539:	89 45 fc             	mov    %eax,-0x4(%ebp)
  40553c:	e8 ca ed ff ff       	call   0x40430b
  405541:	6a 04                	push   $0x4
  405543:	e8 c6 f6 ff ff       	call   0x404c0e
  405548:	a3 14 92 42 00       	mov    %eax,0x429214
  40554d:	8d 45 e8             	lea    -0x18(%ebp),%eax
  405550:	50                   	push   %eax
  405551:	89 1d 2c 92 42 00    	mov    %ebx,0x42922c
  405557:	ff 75 fc             	pushl  -0x4(%ebp)
  40555a:	ff 15 2c 82 40 00    	call   *0x40822c
  405560:	56                   	push   %esi
  405561:	ff 15 ec 81 40 00    	call   *0x4081ec
  405567:	8b 4d f0             	mov    -0x10(%ebp),%ecx
  40556a:	8b 35 20 82 40 00    	mov    0x408220,%esi
  405570:	2b c8                	sub    %eax,%ecx
  405572:	8d 45 c8             	lea    -0x38(%ebp),%eax
  405575:	50                   	push   %eax
  405576:	53                   	push   %ebx
  405577:	68 61 10 00 00       	push   $0x1061
  40557c:	89 4d d0             	mov    %ecx,-0x30(%ebp)
  40557f:	ff 75 fc             	pushl  -0x4(%ebp)
  405582:	ff d6                	call   *%esi
  405584:	b8 00 40 00 00       	mov    $0x4000,%eax
  405589:	50                   	push   %eax
  40558a:	50                   	push   %eax
  40558b:	68 36 10 00 00       	push   $0x1036
  405590:	ff 75 fc             	pushl  -0x4(%ebp)
  405593:	ff d6                	call   *%esi
  405595:	39 5d 0c             	cmp    %ebx,0xc(%ebp)
  405598:	7c 1c                	jl     0x4055b6
  40559a:	ff 75 0c             	pushl  0xc(%ebp)
  40559d:	53                   	push   %ebx
  40559e:	68 01 10 00 00       	push   $0x1001
  4055a3:	ff 75 fc             	pushl  -0x4(%ebp)
  4055a6:	ff d6                	call   *%esi
  4055a8:	ff 75 0c             	pushl  0xc(%ebp)
  4055ab:	53                   	push   %ebx
  4055ac:	68 26 10 00 00       	push   $0x1026
  4055b1:	ff 75 fc             	pushl  -0x4(%ebp)
  4055b4:	ff d6                	call   *%esi
  4055b6:	39 5d 10             	cmp    %ebx,0x10(%ebp)
  4055b9:	7c 0e                	jl     0x4055c9
  4055bb:	ff 75 10             	pushl  0x10(%ebp)
  4055be:	53                   	push   %ebx
  4055bf:	68 24 10 00 00       	push   $0x1024
  4055c4:	ff 75 fc             	pushl  -0x4(%ebp)
  4055c7:	ff d6                	call   *%esi
  4055c9:	8b 45 14             	mov    0x14(%ebp),%eax
  4055cc:	ff 70 30             	pushl  0x30(%eax)
  4055cf:	6a 1b                	push   $0x1b
  4055d1:	ff 75 08             	pushl  0x8(%ebp)
  4055d4:	e8 fd ec ff ff       	call   0x4042d6
  4055d9:	f6 05 58 a2 42 00 03 	testb  $0x3,0x42a258
  4055e0:	74 34                	je     0x405616
  4055e2:	53                   	push   %ebx
  4055e3:	ff 35 10 92 42 00    	pushl  0x429210
  4055e9:	ff 15 68 82 40 00    	call   *0x408268
  4055ef:	f6 05 58 a2 42 00 02 	testb  $0x2,0x42a258
  4055f6:	75 0d                	jne    0x405605
  4055f8:	6a 08                	push   $0x8
  4055fa:	ff 75 fc             	pushl  -0x4(%ebp)
  4055fd:	ff 15 68 82 40 00    	call   *0x408268
  405603:	eb 06                	jmp    0x40560b
  405605:	89 1d 10 92 42 00    	mov    %ebx,0x429210
  40560b:	ff 35 08 92 42 00    	pushl  0x429208
  405611:	e8 f5 ec ff ff       	call   0x40430b
  405616:	68 ec 03 00 00       	push   $0x3ec
  40561b:	ff 75 08             	pushl  0x8(%ebp)
  40561e:	ff d7                	call   *%edi
  405620:	68 00 00 30 75       	push   $0x75300000
  405625:	8b f8                	mov    %eax,%edi
  405627:	53                   	push   %ebx
  405628:	68 01 04 00 00       	push   $0x401
  40562d:	57                   	push   %edi
  40562e:	ff d6                	call   *%esi
  405630:	f6 05 58 a2 42 00 04 	testb  $0x4,0x42a258
  405637:	0f 84 fc 01 00 00    	je     0x405839
  40563d:	ff 75 10             	pushl  0x10(%ebp)
  405640:	53                   	push   %ebx
  405641:	68 09 04 00 00       	push   $0x409
  405646:	57                   	push   %edi
  405647:	ff d6                	call   *%esi
  405649:	ff 75 0c             	pushl  0xc(%ebp)
  40564c:	53                   	push   %ebx
  40564d:	68 01 20 00 00       	push   $0x2001
  405652:	57                   	push   %edi
  405653:	ff d6                	call   *%esi
  405655:	e9 df 01 00 00       	jmp    0x405839
  40565a:	81 7d 0c 05 04 00 00 	cmpl   $0x405,0xc(%ebp)
  405661:	75 28                	jne    0x40568b
  405663:	8d 45 f8             	lea    -0x8(%ebp),%eax
  405666:	50                   	push   %eax
  405667:	53                   	push   %ebx
  405668:	68 ec 03 00 00       	push   $0x3ec
  40566d:	ff 75 08             	pushl  0x8(%ebp)
  405670:	ff 15 6c 82 40 00    	call   *0x40826c
  405676:	50                   	push   %eax
  405677:	68 44 54 40 00       	push   $0x405444
  40567c:	53                   	push   %ebx
  40567d:	53                   	push   %ebx
  40567e:	ff 15 cc 80 40 00    	call   *0x4080cc
  405684:	50                   	push   %eax
  405685:	ff 15 20 81 40 00    	call   *0x408120
  40568b:	81 7d 0c 11 01 00 00 	cmpl   $0x111,0xc(%ebp)
  405692:	8b 3d 68 82 40 00    	mov    0x408268,%edi
  405698:	75 1c                	jne    0x4056b6
  40569a:	66 81 7d 10 03 04    	cmpw   $0x403,0x10(%ebp)
  4056a0:	75 39                	jne    0x4056db
  4056a2:	53                   	push   %ebx
  4056a3:	ff 35 10 92 42 00    	pushl  0x429210
  4056a9:	ff d7                	call   *%edi
  4056ab:	6a 08                	push   $0x8
  4056ad:	56                   	push   %esi
  4056ae:	ff d7                	call   *%edi
  4056b0:	56                   	push   %esi
  4056b1:	e8 55 ec ff ff       	call   0x40430b
  4056b6:	33 f6                	xor    %esi,%esi
  4056b8:	46                   	inc    %esi
  4056b9:	81 7d 0c 04 04 00 00 	cmpl   $0x404,0xc(%ebp)
  4056c0:	75 54                	jne    0x405716
  4056c2:	39 1d 0c 92 42 00    	cmp    %ebx,0x42920c
  4056c8:	74 26                	je     0x4056f0
  4056ca:	6a 78                	push   $0x78
  4056cc:	c7 05 f8 1e 42 00 02 	movl   $0x2,0x421ef8
  4056d3:	00 00 00 
  4056d6:	e8 d4 eb ff ff       	call   0x4042af
  4056db:	ff 75 14             	pushl  0x14(%ebp)
  4056de:	ff 75 10             	pushl  0x10(%ebp)
  4056e1:	ff 75 0c             	pushl  0xc(%ebp)
  4056e4:	e8 54 ec ff ff       	call   0x40433d
  4056e9:	5f                   	pop    %edi
  4056ea:	5e                   	pop    %esi
  4056eb:	5b                   	pop    %ebx
  4056ec:	c9                   	leave  
  4056ed:	c2 10 00             	ret    $0x10
  4056f0:	6a 08                	push   $0x8
  4056f2:	ff 35 48 a2 42 00    	pushl  0x42a248
  4056f8:	ff d7                	call   *%edi
  4056fa:	39 1d cc a2 42 00    	cmp    %ebx,0x42a2cc
  405700:	75 0e                	jne    0x405710
  405702:	a1 00 27 42 00       	mov    0x422700,%eax
  405707:	53                   	push   %ebx
  405708:	ff 70 34             	pushl  0x34(%eax)
  40570b:	e8 61 fc ff ff       	call   0x405371
  405710:	56                   	push   %esi
  405711:	e8 99 eb ff ff       	call   0x4042af
  405716:	83 7d 0c 7b          	cmpl   $0x7b,0xc(%ebp)
  40571a:	75 bf                	jne    0x4056db
  40571c:	8b 45 fc             	mov    -0x4(%ebp),%eax
  40571f:	39 45 10             	cmp    %eax,0x10(%ebp)
  405722:	75 b7                	jne    0x4056db
  405724:	53                   	push   %ebx
  405725:	53                   	push   %ebx
  405726:	68 04 10 00 00       	push   $0x1004
  40572b:	50                   	push   %eax
  40572c:	ff 15 20 82 40 00    	call   *0x408220
  405732:	3b c3                	cmp    %ebx,%eax
  405734:	89 45 0c             	mov    %eax,0xc(%ebp)
  405737:	0f 8e fc 00 00 00    	jle    0x405839
  40573d:	ff 15 84 82 40 00    	call   *0x408284
  405743:	6a e1                	push   $0xffffffe1
  405745:	53                   	push   %ebx
  405746:	8b f8                	mov    %eax,%edi
  405748:	e8 e7 0a 00 00       	call   0x406234
  40574d:	50                   	push   %eax
  40574e:	56                   	push   %esi
  40574f:	53                   	push   %ebx
  405750:	57                   	push   %edi
  405751:	ff 15 80 82 40 00    	call   *0x408280
  405757:	8b 4d 14             	mov    0x14(%ebp),%ecx
  40575a:	0f bf 45 14          	movswl 0x14(%ebp),%eax
  40575e:	c1 e9 10             	shr    $0x10,%ecx
  405761:	83 7d 14 ff          	cmpl   $0xffffffff,0x14(%ebp)
  405765:	0f bf c9             	movswl %cx,%ecx
  405768:	75 13                	jne    0x40577d
  40576a:	8d 45 e8             	lea    -0x18(%ebp),%eax
  40576d:	50                   	push   %eax
  40576e:	ff 75 fc             	pushl  -0x4(%ebp)
  405771:	ff 15 e8 81 40 00    	call   *0x4081e8
  405777:	8b 45 e8             	mov    -0x18(%ebp),%eax
  40577a:	8b 4d ec             	mov    -0x14(%ebp),%ecx
  40577d:	53                   	push   %ebx
  40577e:	ff 75 08             	pushl  0x8(%ebp)
  405781:	53                   	push   %ebx
  405782:	51                   	push   %ecx
  405783:	50                   	push   %eax
  405784:	68 80 01 00 00       	push   $0x180
  405789:	57                   	push   %edi
  40578a:	ff 15 7c 82 40 00    	call   *0x40827c
  405790:	3b c6                	cmp    %esi,%eax
  405792:	0f 85 a1 00 00 00    	jne    0x405839
  405798:	8b 45 0c             	mov    0xc(%ebp),%eax
  40579b:	89 5d c8             	mov    %ebx,-0x38(%ebp)
  40579e:	c7 45 d4 28 37 42 00 	movl   $0x423728,-0x2c(%ebp)
  4057a5:	c7 45 d8 00 10 00 00 	movl   $0x1000,-0x28(%ebp)
  4057ac:	89 45 08             	mov    %eax,0x8(%ebp)
  4057af:	bf 73 10 00 00       	mov    $0x1073,%edi
  4057b4:	ff 4d 08             	decl   0x8(%ebp)
  4057b7:	8d 45 c0             	lea    -0x40(%ebp),%eax
  4057ba:	50                   	push   %eax
  4057bb:	ff 75 08             	pushl  0x8(%ebp)
  4057be:	57                   	push   %edi
  4057bf:	ff 75 fc             	pushl  -0x4(%ebp)
  4057c2:	ff 15 20 82 40 00    	call   *0x408220
  4057c8:	39 5d 08             	cmp    %ebx,0x8(%ebp)
  4057cb:	8d 74 06 02          	lea    0x2(%esi,%eax,1),%esi
  4057cf:	75 e3                	jne    0x4057b4
  4057d1:	53                   	push   %ebx
  4057d2:	ff 15 dc 81 40 00    	call   *0x4081dc
  4057d8:	ff 15 d8 81 40 00    	call   *0x4081d8
  4057de:	8d 04 36             	lea    (%esi,%esi,1),%eax
  4057e1:	50                   	push   %eax
  4057e2:	6a 42                	push   $0x42
  4057e4:	ff 15 0c 81 40 00    	call   *0x40810c
  4057ea:	50                   	push   %eax
  4057eb:	89 45 08             	mov    %eax,0x8(%ebp)
  4057ee:	ff 15 c8 80 40 00    	call   *0x4080c8
  4057f4:	8b f0                	mov    %eax,%esi
  4057f6:	8d 45 c0             	lea    -0x40(%ebp),%eax
  4057f9:	89 75 d4             	mov    %esi,-0x2c(%ebp)
  4057fc:	50                   	push   %eax
  4057fd:	53                   	push   %ebx
  4057fe:	57                   	push   %edi
  4057ff:	ff 75 fc             	pushl  -0x4(%ebp)
  405802:	ff 15 20 82 40 00    	call   *0x408220
  405808:	8d 34 46             	lea    (%esi,%eax,2),%esi
  40580b:	66 c7 06 0d 00       	movw   $0xd,(%esi)
  405810:	46                   	inc    %esi
  405811:	46                   	inc    %esi
  405812:	66 c7 06 0a 00       	movw   $0xa,(%esi)
  405817:	46                   	inc    %esi
  405818:	46                   	inc    %esi
  405819:	43                   	inc    %ebx
  40581a:	3b 5d 0c             	cmp    0xc(%ebp),%ebx
  40581d:	7c d7                	jl     0x4057f6
  40581f:	ff 75 08             	pushl  0x8(%ebp)
  405822:	ff 15 c4 80 40 00    	call   *0x4080c4
  405828:	ff 75 08             	pushl  0x8(%ebp)
  40582b:	6a 0d                	push   $0xd
  40582d:	ff 15 d4 81 40 00    	call   *0x4081d4
  405833:	ff 15 d0 81 40 00    	call   *0x4081d0
  405839:	33 c0                	xor    %eax,%eax
  40583b:	e9 a9 fe ff ff       	jmp    0x4056e9
  405840:	55                   	push   %ebp
  405841:	8b ec                	mov    %esp,%ebp
  405843:	83 ec 20             	sub    $0x20,%esp
  405846:	b8 f8 83 40 00       	mov    $0x4083f8,%eax
  40584b:	80 65 e1 00          	andb   $0x0,-0x1f(%ebp)
  40584f:	89 45 e4             	mov    %eax,-0x1c(%ebp)
  405852:	89 45 e8             	mov    %eax,-0x18(%ebp)
  405855:	8d 45 e0             	lea    -0x20(%ebp),%eax
  405858:	83 65 ec 00          	andl   $0x0,-0x14(%ebp)
  40585c:	83 65 fc 00          	andl   $0x0,-0x4(%ebp)
  405860:	89 45 f8             	mov    %eax,-0x8(%ebp)
  405863:	8d 45 f4             	lea    -0xc(%ebp),%eax
  405866:	56                   	push   %esi
  405867:	50                   	push   %eax
  405868:	c6 45 e0 01          	movb   $0x1,-0x20(%ebp)
  40586c:	ff 75 08             	pushl  0x8(%ebp)
  40586f:	66 c7 45 e2 04 00    	movw   $0x4,-0x1e(%ebp)
  405875:	c7 45 f0 e8 83 40 00 	movl   $0x4083e8,-0x10(%ebp)
  40587c:	c7 45 f4 0c 00 00 00 	movl   $0xc,-0xc(%ebp)
  405883:	ff 15 d4 80 40 00    	call   *0x4080d4
  405889:	85 c0                	test   %eax,%eax
  40588b:	74 04                	je     0x405891
  40588d:	33 c0                	xor    %eax,%eax
  40588f:	eb 27                	jmp    0x4058b8
  405891:	8b 35 d0 80 40 00    	mov    0x4080d0,%esi
  405897:	ff d6                	call   *%esi
  405899:	3d b7 00 00 00       	cmp    $0xb7,%eax
  40589e:	75 18                	jne    0x4058b8
  4058a0:	8d 45 e0             	lea    -0x20(%ebp),%eax
  4058a3:	50                   	push   %eax
  4058a4:	68 07 00 00 80       	push   $0x80000007
  4058a9:	ff 75 08             	pushl  0x8(%ebp)
  4058ac:	ff 15 04 80 40 00    	call   *0x408004
  4058b2:	85 c0                	test   %eax,%eax
  4058b4:	75 d7                	jne    0x40588d
  4058b6:	ff d6                	call   *%esi
  4058b8:	5e                   	pop    %esi
  4058b9:	c9                   	leave  
  4058ba:	c2 04 00             	ret    $0x4
  4058bd:	6a 00                	push   $0x0
  4058bf:	ff 74 24 08          	pushl  0x8(%esp)
  4058c3:	ff 15 d4 80 40 00    	call   *0x4080d4
  4058c9:	85 c0                	test   %eax,%eax
  4058cb:	74 04                	je     0x4058d1
  4058cd:	33 c0                	xor    %eax,%eax
  4058cf:	eb 06                	jmp    0x4058d7
  4058d1:	ff 15 d0 80 40 00    	call   *0x4080d0
  4058d7:	c2 04 00             	ret    $0x4
  4058da:	6a 05                	push   $0x5
  4058dc:	e8 0b 0d 00 00       	call   0x4065ec
  4058e1:	85 c0                	test   %eax,%eax
  4058e3:	74 0a                	je     0x4058ef
  4058e5:	ff d0                	call   *%eax
  4058e7:	85 c0                	test   %eax,%eax
  4058e9:	74 04                	je     0x4058ef
  4058eb:	33 c0                	xor    %eax,%eax
  4058ed:	40                   	inc    %eax
  4058ee:	c3                   	ret    
  4058ef:	33 c0                	xor    %eax,%eax
  4058f1:	c3                   	ret    
  4058f2:	55                   	push   %ebp
  4058f3:	8b ec                	mov    %esp,%ebp
  4058f5:	83 ec 10             	sub    $0x10,%esp
  4058f8:	8d 45 f0             	lea    -0x10(%ebp),%eax
  4058fb:	c7 05 30 67 42 00 44 	movl   $0x44,0x426730
  405902:	00 00 00 
  405905:	50                   	push   %eax
  405906:	33 c0                	xor    %eax,%eax
  405908:	68 30 67 42 00       	push   $0x426730
  40590d:	50                   	push   %eax
  40590e:	50                   	push   %eax
  40590f:	68 00 00 00 04       	push   $0x4000000
  405914:	50                   	push   %eax
  405915:	50                   	push   %eax
  405916:	50                   	push   %eax
  405917:	ff 75 08             	pushl  0x8(%ebp)
  40591a:	50                   	push   %eax
  40591b:	ff 15 d8 80 40 00    	call   *0x4080d8
  405921:	85 c0                	test   %eax,%eax
  405923:	74 0c                	je     0x405931
  405925:	ff 75 f4             	pushl  -0xc(%ebp)
  405928:	ff 15 20 81 40 00    	call   *0x408120
  40592e:	8b 45 f0             	mov    -0x10(%ebp),%eax
  405931:	c9                   	leave  
  405932:	c2 04 00             	ret    $0x4
  405935:	ff 25 f0 81 40 00    	jmp    *0x4081f0
  40593b:	68 00 04 00 00       	push   $0x400
  405940:	ff 74 24 0c          	pushl  0xc(%esp)
  405944:	ff 74 24 0c          	pushl  0xc(%esp)
  405948:	ff 35 18 92 42 00    	pushl  0x429218
  40594e:	ff 15 f4 81 40 00    	call   *0x4081f4
  405954:	c2 08 00             	ret    $0x8
  405957:	8b 44 24 08          	mov    0x8(%esp),%eax
  40595b:	8b c8                	mov    %eax,%ecx
  40595d:	81 e1 ff ff 1f 00    	and    $0x1fffff,%ecx
  405963:	83 3d e0 a2 42 00 00 	cmpl   $0x0,0x42a2e0
  40596a:	74 05                	je     0x405971
  40596c:	c1 e8 15             	shr    $0x15,%eax
  40596f:	75 47                	jne    0x4059b8
  405971:	83 3d e8 a2 42 00 00 	cmpl   $0x0,0x42a2e8
  405978:	74 06                	je     0x405980
  40597a:	81 f1 00 00 18 00    	xor    $0x180000,%ecx
  405980:	a1 48 a2 42 00       	mov    0x42a248,%eax
  405985:	68 e8 a3 40 00       	push   $0x40a3e8
  40598a:	a3 ec a3 40 00       	mov    %eax,0x40a3ec
  40598f:	a1 40 a2 42 00       	mov    0x42a240,%eax
  405994:	a3 f0 a3 40 00       	mov    %eax,0x40a3f0
  405999:	8b 44 24 08          	mov    0x8(%esp),%eax
  40599d:	a3 f4 a3 40 00       	mov    %eax,0x40a3f4
  4059a2:	c7 05 f8 a3 40 00 40 	movl   $0x429240,0x40a3f8
  4059a9:	92 42 00 
  4059ac:	89 0d fc a3 40 00    	mov    %ecx,0x40a3fc
  4059b2:	ff 15 f8 81 40 00    	call   *0x4081f8
  4059b8:	c2 08 00             	ret    $0x8
  4059bb:	56                   	push   %esi
  4059bc:	8b 74 24 08          	mov    0x8(%esp),%esi
  4059c0:	57                   	push   %edi
  4059c1:	56                   	push   %esi
  4059c2:	e8 fb 03 00 00       	call   0x405dc2
  4059c7:	8b f8                	mov    %eax,%edi
  4059c9:	83 ff ff             	cmp    $0xffffffff,%edi
  4059cc:	74 2e                	je     0x4059fc
  4059ce:	f6 44 24 10 01       	testb  $0x1,0x10(%esp)
  4059d3:	56                   	push   %esi
  4059d4:	74 08                	je     0x4059de
  4059d6:	ff 15 dc 80 40 00    	call   *0x4080dc
  4059dc:	eb 06                	jmp    0x4059e4
  4059de:	ff 15 44 81 40 00    	call   *0x408144
  4059e4:	85 c0                	test   %eax,%eax
  4059e6:	74 05                	je     0x4059ed
  4059e8:	33 c0                	xor    %eax,%eax
  4059ea:	40                   	inc    %eax
  4059eb:	eb 11                	jmp    0x4059fe
  4059ed:	f6 44 24 10 04       	testb  $0x4,0x10(%esp)
  4059f2:	75 08                	jne    0x4059fc
  4059f4:	57                   	push   %edi
  4059f5:	56                   	push   %esi
  4059f6:	ff 15 90 80 40 00    	call   *0x408090
  4059fc:	33 c0                	xor    %eax,%eax
  4059fe:	5f                   	pop    %edi
  4059ff:	5e                   	pop    %esi
  405a00:	c2 08 00             	ret    $0x8
  405a03:	55                   	push   %ebp
  405a04:	8b ec                	mov    %esp,%ebp
  405a06:	81 ec 58 02 00 00    	sub    $0x258,%esp
  405a0c:	53                   	push   %ebx
  405a0d:	8b 5d 0c             	mov    0xc(%ebp),%ebx
  405a10:	56                   	push   %esi
  405a11:	57                   	push   %edi
  405a12:	8b 7d 08             	mov    0x8(%ebp),%edi
  405a15:	8b c3                	mov    %ebx,%eax
  405a17:	83 e0 04             	and    $0x4,%eax
  405a1a:	57                   	push   %edi
  405a1b:	89 45 fc             	mov    %eax,-0x4(%ebp)
  405a1e:	e8 ab 02 00 00       	call   0x405cce
  405a23:	f6 c3 08             	test   $0x8,%bl
  405a26:	89 45 f8             	mov    %eax,-0x8(%ebp)
  405a29:	74 17                	je     0x405a42
  405a2b:	57                   	push   %edi
  405a2c:	ff 15 44 81 40 00    	call   *0x408144
  405a32:	f7 d8                	neg    %eax
  405a34:	1b c0                	sbb    %eax,%eax
  405a36:	40                   	inc    %eax
  405a37:	01 05 c8 a2 42 00    	add    %eax,0x42a2c8
  405a3d:	e9 7d 01 00 00       	jmp    0x405bbf
  405a42:	89 5d 08             	mov    %ebx,0x8(%ebp)
  405a45:	83 65 08 01          	andl   $0x1,0x8(%ebp)
  405a49:	74 11                	je     0x405a5c
  405a4b:	85 c0                	test   %eax,%eax
  405a4d:	0f 84 1a 01 00 00    	je     0x405b6d
  405a53:	f6 c3 02             	test   $0x2,%bl
  405a56:	0f 84 11 01 00 00    	je     0x405b6d
  405a5c:	be 30 57 42 00       	mov    $0x425730,%esi
  405a61:	57                   	push   %edi
  405a62:	56                   	push   %esi
  405a63:	e8 aa 07 00 00       	call   0x406212
  405a68:	83 7d 08 00          	cmpl   $0x0,0x8(%ebp)
  405a6c:	74 0d                	je     0x405a7b
  405a6e:	68 74 a5 40 00       	push   $0x40a574
  405a73:	56                   	push   %esi
  405a74:	e8 b5 07 00 00       	call   0x40622e
  405a79:	eb 06                	jmp    0x405a81
  405a7b:	57                   	push   %edi
  405a7c:	e8 91 01 00 00       	call   0x405c12
  405a81:	66 83 3f 00          	cmpw   $0x0,(%edi)
  405a85:	75 0a                	jne    0x405a91
  405a87:	66 83 3d 30 57 42 00 	cmpw   $0x5c,0x425730
  405a8e:	5c 
  405a8f:	75 0b                	jne    0x405a9c
  405a91:	68 14 a0 40 00       	push   $0x40a014
  405a96:	57                   	push   %edi
  405a97:	e8 92 07 00 00       	call   0x40622e
  405a9c:	57                   	push   %edi
  405a9d:	e8 86 07 00 00       	call   0x406228
  405aa2:	8d 1c 47             	lea    (%edi,%eax,2),%ebx
  405aa5:	8d 85 a8 fd ff ff    	lea    -0x258(%ebp),%eax
  405aab:	50                   	push   %eax
  405aac:	56                   	push   %esi
  405aad:	ff 15 3c 81 40 00    	call   *0x40813c
  405ab3:	8b f0                	mov    %eax,%esi
  405ab5:	83 fe ff             	cmp    $0xffffffff,%esi
  405ab8:	0f 84 a4 00 00 00    	je     0x405b62
  405abe:	66 83 bd d4 fd ff ff 	cmpw   $0x2e,-0x22c(%ebp)
  405ac5:	2e 
  405ac6:	75 1e                	jne    0x405ae6
  405ac8:	66 83 bd d6 fd ff ff 	cmpw   $0x0,-0x22a(%ebp)
  405acf:	00 
  405ad0:	74 73                	je     0x405b45
  405ad2:	66 83 bd d6 fd ff ff 	cmpw   $0x2e,-0x22a(%ebp)
  405ad9:	2e 
  405ada:	75 0a                	jne    0x405ae6
  405adc:	66 83 bd d8 fd ff ff 	cmpw   $0x0,-0x228(%ebp)
  405ae3:	00 
  405ae4:	74 5f                	je     0x405b45
  405ae6:	8d 85 d4 fd ff ff    	lea    -0x22c(%ebp),%eax
  405aec:	50                   	push   %eax
  405aed:	53                   	push   %ebx
  405aee:	e8 1f 07 00 00       	call   0x406212
  405af3:	f6 85 a8 fd ff ff 10 	testb  $0x10,-0x258(%ebp)
  405afa:	74 15                	je     0x405b11
  405afc:	8b 45 0c             	mov    0xc(%ebp),%eax
  405aff:	83 e0 03             	and    $0x3,%eax
  405b02:	3c 03                	cmp    $0x3,%al
  405b04:	75 3f                	jne    0x405b45
  405b06:	ff 75 0c             	pushl  0xc(%ebp)
  405b09:	57                   	push   %edi
  405b0a:	e8 f4 fe ff ff       	call   0x405a03
  405b0f:	eb 34                	jmp    0x405b45
  405b11:	ff 75 fc             	pushl  -0x4(%ebp)
  405b14:	57                   	push   %edi
  405b15:	e8 a1 fe ff ff       	call   0x4059bb
  405b1a:	85 c0                	test   %eax,%eax
  405b1c:	75 1f                	jne    0x405b3d
  405b1e:	39 45 fc             	cmp    %eax,-0x4(%ebp)
  405b21:	74 12                	je     0x405b35
  405b23:	57                   	push   %edi
  405b24:	6a f1                	push   $0xfffffff1
  405b26:	e8 46 f8 ff ff       	call   0x405371
  405b2b:	6a 00                	push   $0x0
  405b2d:	57                   	push   %edi
  405b2e:	e8 80 05 00 00       	call   0x4060b3
  405b33:	eb 10                	jmp    0x405b45
  405b35:	ff 05 c8 a2 42 00    	incl   0x42a2c8
  405b3b:	eb 08                	jmp    0x405b45
  405b3d:	57                   	push   %edi
  405b3e:	6a f2                	push   $0xfffffff2
  405b40:	e8 2c f8 ff ff       	call   0x405371
  405b45:	8d 85 a8 fd ff ff    	lea    -0x258(%ebp),%eax
  405b4b:	50                   	push   %eax
  405b4c:	56                   	push   %esi
  405b4d:	ff 15 40 81 40 00    	call   *0x408140
  405b53:	85 c0                	test   %eax,%eax
  405b55:	0f 85 63 ff ff ff    	jne    0x405abe
  405b5b:	56                   	push   %esi
  405b5c:	ff 15 50 81 40 00    	call   *0x408150
  405b62:	83 7d 08 00          	cmpl   $0x0,0x8(%ebp)
  405b66:	74 05                	je     0x405b6d
  405b68:	66 83 63 fe 00       	andw   $0x0,-0x2(%ebx)
  405b6d:	33 f6                	xor    %esi,%esi
  405b6f:	39 75 08             	cmp    %esi,0x8(%ebp)
  405b72:	74 4b                	je     0x405bbf
  405b74:	39 75 f8             	cmp    %esi,-0x8(%ebp)
  405b77:	75 08                	jne    0x405b81
  405b79:	ff 05 c8 a2 42 00    	incl   0x42a2c8
  405b7f:	eb 3e                	jmp    0x405bbf
  405b81:	57                   	push   %edi
  405b82:	e8 ce 09 00 00       	call   0x406555
  405b87:	85 c0                	test   %eax,%eax
  405b89:	74 34                	je     0x405bbf
  405b8b:	57                   	push   %edi
  405b8c:	e8 35 00 00 00       	call   0x405bc6
  405b91:	8b 45 fc             	mov    -0x4(%ebp),%eax
  405b94:	0c 01                	or     $0x1,%al
  405b96:	50                   	push   %eax
  405b97:	57                   	push   %edi
  405b98:	e8 1e fe ff ff       	call   0x4059bb
  405b9d:	85 c0                	test   %eax,%eax
  405b9f:	75 16                	jne    0x405bb7
  405ba1:	39 75 fc             	cmp    %esi,-0x4(%ebp)
  405ba4:	74 d3                	je     0x405b79
  405ba6:	57                   	push   %edi
  405ba7:	6a f1                	push   $0xfffffff1
  405ba9:	e8 c3 f7 ff ff       	call   0x405371
  405bae:	56                   	push   %esi
  405baf:	57                   	push   %edi
  405bb0:	e8 fe 04 00 00       	call   0x4060b3
  405bb5:	eb 08                	jmp    0x405bbf
  405bb7:	57                   	push   %edi
  405bb8:	6a e5                	push   $0xffffffe5
  405bba:	e8 b2 f7 ff ff       	call   0x405371
  405bbf:	5f                   	pop    %edi
  405bc0:	5e                   	pop    %esi
  405bc1:	5b                   	pop    %ebx
  405bc2:	c9                   	leave  
  405bc3:	c2 08 00             	ret    $0x8
  405bc6:	56                   	push   %esi
  405bc7:	8b 74 24 08          	mov    0x8(%esp),%esi
  405bcb:	56                   	push   %esi
  405bcc:	e8 57 06 00 00       	call   0x406228
  405bd1:	8d 04 46             	lea    (%esi,%eax,2),%eax
  405bd4:	50                   	push   %eax
  405bd5:	56                   	push   %esi
  405bd6:	ff 15 fc 81 40 00    	call   *0x4081fc
  405bdc:	66 83 38 5c          	cmpw   $0x5c,(%eax)
  405be0:	74 0b                	je     0x405bed
  405be2:	68 14 a0 40 00       	push   $0x40a014
  405be7:	56                   	push   %esi
  405be8:	e8 41 06 00 00       	call   0x40622e
  405bed:	8b c6                	mov    %esi,%eax
  405bef:	5e                   	pop    %esi
  405bf0:	c2 04 00             	ret    $0x4
  405bf3:	8b 44 24 04          	mov    0x4(%esp),%eax
  405bf7:	eb 0e                	jmp    0x405c07
  405bf9:	66 3b 4c 24 08       	cmp    0x8(%esp),%cx
  405bfe:	74 0f                	je     0x405c0f
  405c00:	50                   	push   %eax
  405c01:	ff 15 4c 82 40 00    	call   *0x40824c
  405c07:	66 8b 08             	mov    (%eax),%cx
  405c0a:	66 85 c9             	test   %cx,%cx
  405c0d:	75 ea                	jne    0x405bf9
  405c0f:	c2 08 00             	ret    $0x8
  405c12:	56                   	push   %esi
  405c13:	8b 74 24 08          	mov    0x8(%esp),%esi
  405c17:	56                   	push   %esi
  405c18:	e8 0b 06 00 00       	call   0x406228
  405c1d:	8d 04 46             	lea    (%esi,%eax,2),%eax
  405c20:	66 83 38 5c          	cmpw   $0x5c,(%eax)
  405c24:	74 0c                	je     0x405c32
  405c26:	50                   	push   %eax
  405c27:	56                   	push   %esi
  405c28:	ff 15 fc 81 40 00    	call   *0x4081fc
  405c2e:	3b c6                	cmp    %esi,%eax
  405c30:	77 ee                	ja     0x405c20
  405c32:	66 83 20 00          	andw   $0x0,(%eax)
  405c36:	83 c0 02             	add    $0x2,%eax
  405c39:	5e                   	pop    %esi
  405c3a:	c2 04 00             	ret    $0x4
  405c3d:	8b 54 24 04          	mov    0x4(%esp),%edx
  405c41:	66 8b 0a             	mov    (%edx),%cx
  405c44:	8b c1                	mov    %ecx,%eax
  405c46:	0c 20                	or     $0x20,%al
  405c48:	66 83 f9 5c          	cmp    $0x5c,%cx
  405c4c:	75 06                	jne    0x405c54
  405c4e:	66 39 4a 02          	cmp    %cx,0x2(%edx)
  405c52:	74 13                	je     0x405c67
  405c54:	66 3d 61 00          	cmp    $0x61,%ax
  405c58:	72 12                	jb     0x405c6c
  405c5a:	66 3d 7a 00          	cmp    $0x7a,%ax
  405c5e:	77 0c                	ja     0x405c6c
  405c60:	66 83 7a 02 3a       	cmpw   $0x3a,0x2(%edx)
  405c65:	75 05                	jne    0x405c6c
  405c67:	33 c0                	xor    %eax,%eax
  405c69:	40                   	inc    %eax
  405c6a:	eb 02                	jmp    0x405c6e
  405c6c:	33 c0                	xor    %eax,%eax
  405c6e:	c2 04 00             	ret    $0x4
  405c71:	53                   	push   %ebx
  405c72:	56                   	push   %esi
  405c73:	8b 35 4c 82 40 00    	mov    0x40824c,%esi
  405c79:	57                   	push   %edi
  405c7a:	8b 7c 24 10          	mov    0x10(%esp),%edi
  405c7e:	57                   	push   %edi
  405c7f:	ff d6                	call   *%esi
  405c81:	8b d8                	mov    %eax,%ebx
  405c83:	53                   	push   %ebx
  405c84:	ff d6                	call   *%esi
  405c86:	66 8b 0f             	mov    (%edi),%cx
  405c89:	66 85 c9             	test   %cx,%cx
  405c8c:	74 12                	je     0x405ca0
  405c8e:	66 83 3b 3a          	cmpw   $0x3a,(%ebx)
  405c92:	75 0c                	jne    0x405ca0
  405c94:	66 83 7b 02 5c       	cmpw   $0x5c,0x2(%ebx)
  405c99:	75 05                	jne    0x405ca0
  405c9b:	50                   	push   %eax
  405c9c:	ff d6                	call   *%esi
  405c9e:	eb 28                	jmp    0x405cc8
  405ca0:	66 83 f9 5c          	cmp    $0x5c,%cx
  405ca4:	75 20                	jne    0x405cc6
  405ca6:	66 39 4f 02          	cmp    %cx,0x2(%edi)
  405caa:	75 1a                	jne    0x405cc6
  405cac:	6a 02                	push   $0x2
  405cae:	5e                   	pop    %esi
  405caf:	6a 5c                	push   $0x5c
  405cb1:	50                   	push   %eax
  405cb2:	4e                   	dec    %esi
  405cb3:	e8 3b ff ff ff       	call   0x405bf3
  405cb8:	66 83 38 00          	cmpw   $0x0,(%eax)
  405cbc:	74 08                	je     0x405cc6
  405cbe:	40                   	inc    %eax
  405cbf:	40                   	inc    %eax
  405cc0:	85 f6                	test   %esi,%esi
  405cc2:	75 eb                	jne    0x405caf
  405cc4:	eb 02                	jmp    0x405cc8
  405cc6:	33 c0                	xor    %eax,%eax
  405cc8:	5f                   	pop    %edi
  405cc9:	5e                   	pop    %esi
  405cca:	5b                   	pop    %ebx
  405ccb:	c2 04 00             	ret    $0x4
  405cce:	56                   	push   %esi
  405ccf:	57                   	push   %edi
  405cd0:	ff 74 24 0c          	pushl  0xc(%esp)
  405cd4:	be 30 5f 42 00       	mov    $0x425f30,%esi
  405cd9:	56                   	push   %esi
  405cda:	e8 33 05 00 00       	call   0x406212
  405cdf:	56                   	push   %esi
  405ce0:	e8 8c ff ff ff       	call   0x405c71
  405ce5:	8b f8                	mov    %eax,%edi
  405ce7:	85 ff                	test   %edi,%edi
  405ce9:	75 04                	jne    0x405cef
  405ceb:	33 c0                	xor    %eax,%eax
  405ced:	eb 58                	jmp    0x405d47
  405cef:	57                   	push   %edi
  405cf0:	e8 b1 07 00 00       	call   0x4064a6
  405cf5:	f6 05 58 a2 42 00 80 	testb  $0x80,0x42a258
  405cfc:	74 0e                	je     0x405d0c
  405cfe:	66 8b 07             	mov    (%edi),%ax
  405d01:	66 85 c0             	test   %ax,%ax
  405d04:	74 e5                	je     0x405ceb
  405d06:	66 3d 5c 00          	cmp    $0x5c,%ax
  405d0a:	74 df                	je     0x405ceb
  405d0c:	2b fe                	sub    %esi,%edi
  405d0e:	d1 ff                	sar    %edi
  405d10:	eb 14                	jmp    0x405d26
  405d12:	e8 3e 08 00 00       	call   0x406555
  405d17:	85 c0                	test   %eax,%eax
  405d19:	74 05                	je     0x405d20
  405d1b:	f6 00 10             	testb  $0x10,(%eax)
  405d1e:	74 cb                	je     0x405ceb
  405d20:	56                   	push   %esi
  405d21:	e8 ec fe ff ff       	call   0x405c12
  405d26:	56                   	push   %esi
  405d27:	e8 fc 04 00 00       	call   0x406228
  405d2c:	3b c7                	cmp    %edi,%eax
  405d2e:	56                   	push   %esi
  405d2f:	7f e1                	jg     0x405d12
  405d31:	e8 90 fe ff ff       	call   0x405bc6
  405d36:	56                   	push   %esi
  405d37:	ff 15 74 80 40 00    	call   *0x408074
  405d3d:	33 c9                	xor    %ecx,%ecx
  405d3f:	83 f8 ff             	cmp    $0xffffffff,%eax
  405d42:	0f 95 c1             	setne  %cl
  405d45:	8b c1                	mov    %ecx,%eax
  405d47:	5f                   	pop    %edi
  405d48:	5e                   	pop    %esi
  405d49:	c2 04 00             	ret    $0x4
  405d4c:	55                   	push   %ebp
  405d4d:	8b ec                	mov    %esp,%ebp
  405d4f:	51                   	push   %ecx
  405d50:	53                   	push   %ebx
  405d51:	56                   	push   %esi
  405d52:	57                   	push   %edi
  405d53:	8b 3d 5c 81 40 00    	mov    0x40815c,%edi
  405d59:	ff 75 0c             	pushl  0xc(%ebp)
  405d5c:	ff d7                	call   *%edi
  405d5e:	8b 75 08             	mov    0x8(%ebp),%esi
  405d61:	89 45 fc             	mov    %eax,-0x4(%ebp)
  405d64:	eb 27                	jmp    0x405d8d
  405d66:	8b 45 fc             	mov    -0x4(%ebp),%eax
  405d69:	ff 75 0c             	pushl  0xc(%ebp)
  405d6c:	8a 1c 30             	mov    (%eax,%esi,1),%bl
  405d6f:	80 24 30 00          	andb   $0x0,(%eax,%esi,1)
  405d73:	56                   	push   %esi
  405d74:	ff 15 e0 80 40 00    	call   *0x4080e0
  405d7a:	85 c0                	test   %eax,%eax
  405d7c:	8b 45 fc             	mov    -0x4(%ebp),%eax
  405d7f:	88 1c 30             	mov    %bl,(%eax,%esi,1)
  405d82:	74 1a                	je     0x405d9e
  405d84:	56                   	push   %esi
  405d85:	ff 15 00 82 40 00    	call   *0x408200
  405d8b:	8b f0                	mov    %eax,%esi
  405d8d:	56                   	push   %esi
  405d8e:	ff d7                	call   *%edi
  405d90:	3b 45 fc             	cmp    -0x4(%ebp),%eax
  405d93:	7d d1                	jge    0x405d66
  405d95:	33 c0                	xor    %eax,%eax
  405d97:	5f                   	pop    %edi
  405d98:	5e                   	pop    %esi
  405d99:	5b                   	pop    %ebx
  405d9a:	c9                   	leave  
  405d9b:	c2 08 00             	ret    $0x8
  405d9e:	8b c6                	mov    %esi,%eax
  405da0:	eb f5                	jmp    0x405d97
  405da2:	8b 4c 24 04          	mov    0x4(%esp),%ecx
  405da6:	56                   	push   %esi
  405da7:	8b 74 24 10          	mov    0x10(%esp),%esi
  405dab:	85 f6                	test   %esi,%esi
  405dad:	76 0f                	jbe    0x405dbe
  405daf:	8b 44 24 0c          	mov    0xc(%esp),%eax
  405db3:	2b c1                	sub    %ecx,%eax
  405db5:	8a 14 08             	mov    (%eax,%ecx,1),%dl
  405db8:	88 11                	mov    %dl,(%ecx)
  405dba:	41                   	inc    %ecx
  405dbb:	4e                   	dec    %esi
  405dbc:	75 f7                	jne    0x405db5
  405dbe:	5e                   	pop    %esi
  405dbf:	c2 0c 00             	ret    $0xc
  405dc2:	56                   	push   %esi
  405dc3:	ff 74 24 08          	pushl  0x8(%esp)
  405dc7:	ff 15 74 80 40 00    	call   *0x408074
  405dcd:	8b f0                	mov    %eax,%esi
  405dcf:	83 fe ff             	cmp    $0xffffffff,%esi
  405dd2:	74 0d                	je     0x405de1
  405dd4:	24 fe                	and    $0xfe,%al
  405dd6:	50                   	push   %eax
  405dd7:	ff 74 24 0c          	pushl  0xc(%esp)
  405ddb:	ff 15 90 80 40 00    	call   *0x408090
  405de1:	8b c6                	mov    %esi,%eax
  405de3:	5e                   	pop    %esi
  405de4:	c2 04 00             	ret    $0x4
  405de7:	ff 74 24 04          	pushl  0x4(%esp)
  405deb:	ff 15 74 80 40 00    	call   *0x408074
  405df1:	8b c8                	mov    %eax,%ecx
  405df3:	6a 00                	push   $0x0
  405df5:	41                   	inc    %ecx
  405df6:	f7 d9                	neg    %ecx
  405df8:	1b c9                	sbb    %ecx,%ecx
  405dfa:	23 c8                	and    %eax,%ecx
  405dfc:	51                   	push   %ecx
  405dfd:	ff 74 24 14          	pushl  0x14(%esp)
  405e01:	6a 00                	push   $0x0
  405e03:	6a 01                	push   $0x1
  405e05:	ff 74 24 1c          	pushl  0x1c(%esp)
  405e09:	ff 74 24 1c          	pushl  0x1c(%esp)
  405e0d:	ff 15 84 80 40 00    	call   *0x408084
  405e13:	c2 0c 00             	ret    $0xc
  405e16:	55                   	push   %ebp
  405e17:	8b ec                	mov    %esp,%ebp
  405e19:	51                   	push   %ecx
  405e1a:	51                   	push   %ecx
  405e1b:	56                   	push   %esi
  405e1c:	8b 75 08             	mov    0x8(%ebp),%esi
  405e1f:	57                   	push   %edi
  405e20:	6a 64                	push   $0x64
  405e22:	5f                   	pop    %edi
  405e23:	a1 80 a5 40 00       	mov    0x40a580,%eax
  405e28:	4f                   	dec    %edi
  405e29:	89 45 f8             	mov    %eax,-0x8(%ebp)
  405e2c:	a1 84 a5 40 00       	mov    0x40a584,%eax
  405e31:	89 45 fc             	mov    %eax,-0x4(%ebp)
  405e34:	ff 15 80 80 40 00    	call   *0x408080
  405e3a:	6a 1a                	push   $0x1a
  405e3c:	33 d2                	xor    %edx,%edx
  405e3e:	59                   	pop    %ecx
  405e3f:	f7 f1                	div    %ecx
  405e41:	56                   	push   %esi
  405e42:	8d 45 f8             	lea    -0x8(%ebp),%eax
  405e45:	6a 00                	push   $0x0
  405e47:	50                   	push   %eax
  405e48:	ff 75 0c             	pushl  0xc(%ebp)
  405e4b:	66 01 55 fc          	add    %dx,-0x4(%ebp)
  405e4f:	ff 15 e4 80 40 00    	call   *0x4080e4
  405e55:	85 c0                	test   %eax,%eax
  405e57:	75 0d                	jne    0x405e66
  405e59:	85 ff                	test   %edi,%edi
  405e5b:	75 c6                	jne    0x405e23
  405e5d:	66 21 3e             	and    %di,(%esi)
  405e60:	5f                   	pop    %edi
  405e61:	5e                   	pop    %esi
  405e62:	c9                   	leave  
  405e63:	c2 08 00             	ret    $0x8
  405e66:	8b c6                	mov    %esi,%eax
  405e68:	eb f6                	jmp    0x405e60
  405e6a:	55                   	push   %ebp
  405e6b:	8b ec                	mov    %esp,%ebp
  405e6d:	56                   	push   %esi
  405e6e:	8b 75 10             	mov    0x10(%ebp),%esi
  405e71:	8d 45 10             	lea    0x10(%ebp),%eax
  405e74:	6a 00                	push   $0x0
  405e76:	50                   	push   %eax
  405e77:	56                   	push   %esi
  405e78:	ff 75 0c             	pushl  0xc(%ebp)
  405e7b:	ff 75 08             	pushl  0x8(%ebp)
  405e7e:	ff 15 4c 81 40 00    	call   *0x40814c
  405e84:	85 c0                	test   %eax,%eax
  405e86:	74 0a                	je     0x405e92
  405e88:	3b 75 10             	cmp    0x10(%ebp),%esi
  405e8b:	75 05                	jne    0x405e92
  405e8d:	33 c0                	xor    %eax,%eax
  405e8f:	40                   	inc    %eax
  405e90:	eb 02                	jmp    0x405e94
  405e92:	33 c0                	xor    %eax,%eax
  405e94:	5e                   	pop    %esi
  405e95:	5d                   	pop    %ebp
  405e96:	c2 0c 00             	ret    $0xc
  405e99:	55                   	push   %ebp
  405e9a:	8b ec                	mov    %esp,%ebp
  405e9c:	56                   	push   %esi
  405e9d:	8b 75 10             	mov    0x10(%ebp),%esi
  405ea0:	8d 45 10             	lea    0x10(%ebp),%eax
  405ea3:	6a 00                	push   $0x0
  405ea5:	50                   	push   %eax
  405ea6:	56                   	push   %esi
  405ea7:	ff 75 0c             	pushl  0xc(%ebp)
  405eaa:	ff 75 08             	pushl  0x8(%ebp)
  405ead:	ff 15 e8 80 40 00    	call   *0x4080e8
  405eb3:	85 c0                	test   %eax,%eax
  405eb5:	74 0a                	je     0x405ec1
  405eb7:	3b 75 10             	cmp    0x10(%ebp),%esi
  405eba:	75 05                	jne    0x405ec1
  405ebc:	33 c0                	xor    %eax,%eax
  405ebe:	40                   	inc    %eax
  405ebf:	eb 02                	jmp    0x405ec3
  405ec1:	33 c0                	xor    %eax,%eax
  405ec3:	5e                   	pop    %esi
  405ec4:	5d                   	pop    %ebp
  405ec5:	c2 0c 00             	ret    $0xc
  405ec8:	55                   	push   %ebp
  405ec9:	8b ec                	mov    %esp,%ebp
  405ecb:	53                   	push   %ebx
  405ecc:	8b 5d 08             	mov    0x8(%ebp),%ebx
  405ecf:	56                   	push   %esi
  405ed0:	8b 35 48 81 40 00    	mov    0x408148,%esi
  405ed6:	57                   	push   %edi
  405ed7:	33 ff                	xor    %edi,%edi
  405ed9:	6a 01                	push   $0x1
  405edb:	57                   	push   %edi
  405edc:	57                   	push   %edi
  405edd:	53                   	push   %ebx
  405ede:	ff d6                	call   *%esi
  405ee0:	85 c0                	test   %eax,%eax
  405ee2:	75 53                	jne    0x405f37
  405ee4:	8d 45 0a             	lea    0xa(%ebp),%eax
  405ee7:	6a 02                	push   $0x2
  405ee9:	50                   	push   %eax
  405eea:	53                   	push   %ebx
  405eeb:	e8 7a ff ff ff       	call   0x405e6a
  405ef0:	85 c0                	test   %eax,%eax
  405ef2:	74 10                	je     0x405f04
  405ef4:	80 7d 0a ff          	cmpb   $0xff,0xa(%ebp)
  405ef8:	75 0a                	jne    0x405f04
  405efa:	80 7d 0b fe          	cmpb   $0xfe,0xb(%ebp)
  405efe:	75 04                	jne    0x405f04
  405f00:	33 c0                	xor    %eax,%eax
  405f02:	eb 36                	jmp    0x405f3a
  405f04:	39 7d 0c             	cmp    %edi,0xc(%ebp)
  405f07:	74 28                	je     0x405f31
  405f09:	6a 01                	push   $0x1
  405f0b:	57                   	push   %edi
  405f0c:	57                   	push   %edi
  405f0d:	53                   	push   %ebx
  405f0e:	ff d6                	call   *%esi
  405f10:	85 c0                	test   %eax,%eax
  405f12:	75 1d                	jne    0x405f31
  405f14:	6a 02                	push   $0x2
  405f16:	68 1c 84 40 00       	push   $0x40841c
  405f1b:	53                   	push   %ebx
  405f1c:	e8 78 ff ff ff       	call   0x405e99
  405f21:	f7 d8                	neg    %eax
  405f23:	1b c0                	sbb    %eax,%eax
  405f25:	25 fb bf ff 7f       	and    $0x7fffbffb,%eax
  405f2a:	05 05 40 00 80       	add    $0x80004005,%eax
  405f2f:	eb 09                	jmp    0x405f3a
  405f31:	57                   	push   %edi
  405f32:	57                   	push   %edi
  405f33:	57                   	push   %edi
  405f34:	53                   	push   %ebx
  405f35:	ff d6                	call   *%esi
  405f37:	33 c0                	xor    %eax,%eax
  405f39:	40                   	inc    %eax
  405f3a:	5f                   	pop    %edi
  405f3b:	5e                   	pop    %esi
  405f3c:	5b                   	pop    %ebx
  405f3d:	5d                   	pop    %ebp
  405f3e:	c2 08 00             	ret    $0x8
  405f41:	53                   	push   %ebx
  405f42:	55                   	push   %ebp
  405f43:	56                   	push   %esi
  405f44:	57                   	push   %edi
  405f45:	bb c8 6d 42 00       	mov    $0x426dc8,%ebx
  405f4a:	68 a4 a5 40 00       	push   $0x40a5a4
  405f4f:	53                   	push   %ebx
  405f50:	ff 15 f0 80 40 00    	call   *0x4080f0
  405f56:	8b 74 24 18          	mov    0x18(%esp),%esi
  405f5a:	8b 2d 10 81 40 00    	mov    0x408110,%ebp
  405f60:	85 f6                	test   %esi,%esi
  405f62:	bf 00 04 00 00       	mov    $0x400,%edi
  405f67:	74 26                	je     0x405f8f
  405f69:	6a 01                	push   $0x1
  405f6b:	6a 00                	push   $0x0
  405f6d:	56                   	push   %esi
  405f6e:	e8 74 fe ff ff       	call   0x405de7
  405f73:	50                   	push   %eax
  405f74:	ff 15 20 81 40 00    	call   *0x408120
  405f7a:	57                   	push   %edi
  405f7b:	53                   	push   %ebx
  405f7c:	56                   	push   %esi
  405f7d:	ff d5                	call   *%ebp
  405f7f:	85 c0                	test   %eax,%eax
  405f81:	0f 84 27 01 00 00    	je     0x4060ae
  405f87:	3b c7                	cmp    %edi,%eax
  405f89:	0f 8f 1f 01 00 00    	jg     0x4060ae
  405f8f:	be c8 75 42 00       	mov    $0x4275c8,%esi
  405f94:	57                   	push   %edi
  405f95:	56                   	push   %esi
  405f96:	ff 74 24 1c          	pushl  0x1c(%esp)
  405f9a:	ff d5                	call   *%ebp
  405f9c:	85 c0                	test   %eax,%eax
  405f9e:	0f 84 0a 01 00 00    	je     0x4060ae
  405fa4:	3b c7                	cmp    %edi,%eax
  405fa6:	0f 8f 02 01 00 00    	jg     0x4060ae
  405fac:	56                   	push   %esi
  405fad:	53                   	push   %ebx
  405fae:	68 98 a5 40 00       	push   $0x40a598
  405fb3:	68 c8 69 42 00       	push   $0x4269c8
  405fb8:	ff 15 04 82 40 00    	call   *0x408204
  405fbe:	8b d8                	mov    %eax,%ebx
  405fc0:	a1 50 a2 42 00       	mov    0x42a250,%eax
  405fc5:	83 c4 10             	add    $0x10,%esp
  405fc8:	ff b0 28 01 00 00    	pushl  0x128(%eax)
  405fce:	56                   	push   %esi
  405fcf:	e8 60 02 00 00       	call   0x406234
  405fd4:	6a 04                	push   $0x4
  405fd6:	68 00 00 00 c0       	push   $0xc0000000
  405fdb:	56                   	push   %esi
  405fdc:	e8 06 fe ff ff       	call   0x405de7
  405fe1:	8b e8                	mov    %eax,%ebp
  405fe3:	83 fd ff             	cmp    $0xffffffff,%ebp
  405fe6:	89 6c 24 18          	mov    %ebp,0x18(%esp)
  405fea:	0f 84 be 00 00 00    	je     0x4060ae
  405ff0:	6a 00                	push   $0x0
  405ff2:	55                   	push   %ebp
  405ff3:	ff 15 88 80 40 00    	call   *0x408088
  405ff9:	8b f8                	mov    %eax,%edi
  405ffb:	8d 44 1f 0a          	lea    0xa(%edi,%ebx,1),%eax
  405fff:	50                   	push   %eax
  406000:	6a 40                	push   $0x40
  406002:	ff 15 0c 81 40 00    	call   *0x40810c
  406008:	8b f0                	mov    %eax,%esi
  40600a:	85 f6                	test   %esi,%esi
  40600c:	0f 84 95 00 00 00    	je     0x4060a7
  406012:	57                   	push   %edi
  406013:	56                   	push   %esi
  406014:	55                   	push   %ebp
  406015:	e8 50 fe ff ff       	call   0x405e6a
  40601a:	85 c0                	test   %eax,%eax
  40601c:	0f 84 85 00 00 00    	je     0x4060a7
  406022:	68 8c a5 40 00       	push   $0x40a58c
  406027:	56                   	push   %esi
  406028:	e8 1f fd ff ff       	call   0x405d4c
  40602d:	85 c0                	test   %eax,%eax
  40602f:	75 14                	jne    0x406045
  406031:	8d 04 3e             	lea    (%esi,%edi,1),%eax
  406034:	68 8c a5 40 00       	push   $0x40a58c
  406039:	50                   	push   %eax
  40603a:	ff 15 ec 80 40 00    	call   *0x4080ec
  406040:	83 c7 0a             	add    $0xa,%edi
  406043:	eb 35                	jmp    0x40607a
  406045:	83 c0 0a             	add    $0xa,%eax
  406048:	68 88 a5 40 00       	push   $0x40a588
  40604d:	50                   	push   %eax
  40604e:	e8 f9 fc ff ff       	call   0x405d4c
  406053:	8b e8                	mov    %eax,%ebp
  406055:	85 ed                	test   %ebp,%ebp
  406057:	74 1d                	je     0x406076
  406059:	8d 0c 3e             	lea    (%esi,%edi,1),%ecx
  40605c:	8d 04 19             	lea    (%ecx,%ebx,1),%eax
  40605f:	eb 06                	jmp    0x406067
  406061:	8a 11                	mov    (%ecx),%dl
  406063:	88 10                	mov    %dl,(%eax)
  406065:	48                   	dec    %eax
  406066:	49                   	dec    %ecx
  406067:	3b cd                	cmp    %ebp,%ecx
  406069:	77 f6                	ja     0x406061
  40606b:	2b ee                	sub    %esi,%ebp
  40606d:	45                   	inc    %ebp
  40606e:	8b c5                	mov    %ebp,%eax
  406070:	8b 6c 24 18          	mov    0x18(%esp),%ebp
  406074:	eb 06                	jmp    0x40607c
  406076:	8b 6c 24 18          	mov    0x18(%esp),%ebp
  40607a:	8b c7                	mov    %edi,%eax
  40607c:	53                   	push   %ebx
  40607d:	03 c6                	add    %esi,%eax
  40607f:	68 c8 69 42 00       	push   $0x4269c8
  406084:	50                   	push   %eax
  406085:	e8 18 fd ff ff       	call   0x405da2
  40608a:	33 c0                	xor    %eax,%eax
  40608c:	50                   	push   %eax
  40608d:	50                   	push   %eax
  40608e:	50                   	push   %eax
  40608f:	55                   	push   %ebp
  406090:	ff 15 48 81 40 00    	call   *0x408148
  406096:	03 fb                	add    %ebx,%edi
  406098:	57                   	push   %edi
  406099:	56                   	push   %esi
  40609a:	55                   	push   %ebp
  40609b:	e8 f9 fd ff ff       	call   0x405e99
  4060a0:	56                   	push   %esi
  4060a1:	ff 15 08 81 40 00    	call   *0x408108
  4060a7:	55                   	push   %ebp
  4060a8:	ff 15 20 81 40 00    	call   *0x408120
  4060ae:	5f                   	pop    %edi
  4060af:	5e                   	pop    %esi
  4060b0:	5d                   	pop    %ebp
  4060b1:	5b                   	pop    %ebx
  4060b2:	c3                   	ret    
  4060b3:	6a 05                	push   $0x5
  4060b5:	ff 74 24 0c          	pushl  0xc(%esp)
  4060b9:	ff 74 24 0c          	pushl  0xc(%esp)
  4060bd:	ff 15 f4 80 40 00    	call   *0x4080f4
  4060c3:	85 c0                	test   %eax,%eax
  4060c5:	75 0f                	jne    0x4060d6
  4060c7:	ff 74 24 08          	pushl  0x8(%esp)
  4060cb:	ff 74 24 08          	pushl  0x8(%esp)
  4060cf:	e8 6d fe ff ff       	call   0x405f41
  4060d4:	59                   	pop    %ecx
  4060d5:	59                   	pop    %ecx
  4060d6:	ff 05 d0 a2 42 00    	incl   0x42a2d0
  4060dc:	c2 08 00             	ret    $0x8
  4060df:	55                   	push   %ebp
  4060e0:	8b ec                	mov    %esp,%ebp
  4060e2:	56                   	push   %esi
  4060e3:	8d 45 18             	lea    0x18(%ebp),%eax
  4060e6:	57                   	push   %edi
  4060e7:	50                   	push   %eax
  4060e8:	8b 45 18             	mov    0x18(%ebp),%eax
  4060eb:	33 ff                	xor    %edi,%edi
  4060ed:	f7 d8                	neg    %eax
  4060ef:	1b c0                	sbb    %eax,%eax
  4060f1:	8b 75 14             	mov    0x14(%ebp),%esi
  4060f4:	25 00 01 00 00       	and    $0x100,%eax
  4060f9:	0d 19 00 02 00       	or     $0x20019,%eax
  4060fe:	66 89 3e             	mov    %di,(%esi)
  406101:	50                   	push   %eax
  406102:	57                   	push   %edi
  406103:	ff 75 0c             	pushl  0xc(%ebp)
  406106:	ff 75 08             	pushl  0x8(%ebp)
  406109:	ff 15 14 80 40 00    	call   *0x408014
  40610f:	85 c0                	test   %eax,%eax
  406111:	75 40                	jne    0x406153
  406113:	8d 45 0c             	lea    0xc(%ebp),%eax
  406116:	c7 45 0c 00 08 00 00 	movl   $0x800,0xc(%ebp)
  40611d:	50                   	push   %eax
  40611e:	8d 45 14             	lea    0x14(%ebp),%eax
  406121:	56                   	push   %esi
  406122:	50                   	push   %eax
  406123:	57                   	push   %edi
  406124:	ff 75 10             	pushl  0x10(%ebp)
  406127:	ff 75 18             	pushl  0x18(%ebp)
  40612a:	ff 15 2c 80 40 00    	call   *0x40802c
  406130:	85 c0                	test   %eax,%eax
  406132:	75 0c                	jne    0x406140
  406134:	83 7d 14 01          	cmpl   $0x1,0x14(%ebp)
  406138:	74 09                	je     0x406143
  40613a:	83 7d 14 02          	cmpl   $0x2,0x14(%ebp)
  40613e:	74 03                	je     0x406143
  406140:	66 89 3e             	mov    %di,(%esi)
  406143:	ff 75 18             	pushl  0x18(%ebp)
  406146:	66 89 be fe 07 00 00 	mov    %di,0x7fe(%esi)
  40614d:	ff 15 20 80 40 00    	call   *0x408020
  406153:	5f                   	pop    %edi
  406154:	5e                   	pop    %esi
  406155:	5d                   	pop    %ebp
  406156:	c2 14 00             	ret    $0x14
  406159:	ff 74 24 08          	pushl  0x8(%esp)
  40615d:	68 20 84 40 00       	push   $0x408420
  406162:	ff 74 24 0c          	pushl  0xc(%esp)
  406166:	ff 15 e0 81 40 00    	call   *0x4081e0
  40616c:	83 c4 0c             	add    $0xc,%esp
  40616f:	c2 08 00             	ret    $0x8
  406172:	55                   	push   %ebp
  406173:	8b ec                	mov    %esp,%ebp
  406175:	51                   	push   %ecx
  406176:	51                   	push   %ecx
  406177:	8b 4d 08             	mov    0x8(%ebp),%ecx
  40617a:	83 65 fc 00          	andl   $0x0,-0x4(%ebp)
  40617e:	53                   	push   %ebx
  40617f:	56                   	push   %esi
  406180:	66 83 39 2d          	cmpw   $0x2d,(%ecx)
  406184:	6a 0a                	push   $0xa
  406186:	58                   	pop    %eax
  406187:	c7 45 f8 01 00 00 00 	movl   $0x1,-0x8(%ebp)
  40618e:	6a 39                	push   $0x39
  406190:	5b                   	pop    %ebx
  406191:	75 06                	jne    0x406199
  406193:	41                   	inc    %ecx
  406194:	41                   	inc    %ecx
  406195:	83 4d f8 ff          	orl    $0xffffffff,-0x8(%ebp)
  406199:	66 83 39 30          	cmpw   $0x30,(%ecx)
  40619d:	75 27                	jne    0x4061c6
  40619f:	41                   	inc    %ecx
  4061a0:	41                   	inc    %ecx
  4061a1:	66 8b 11             	mov    (%ecx),%dx
  4061a4:	66 83 fa 30          	cmp    $0x30,%dx
  4061a8:	72 0c                	jb     0x4061b6
  4061aa:	66 83 fa 37          	cmp    $0x37,%dx
  4061ae:	77 06                	ja     0x4061b6
  4061b0:	6a 08                	push   $0x8
  4061b2:	58                   	pop    %eax
  4061b3:	6a 37                	push   $0x37
  4061b5:	5b                   	pop    %ebx
  4061b6:	0f b7 d2             	movzwl %dx,%edx
  4061b9:	83 e2 df             	and    $0xffffffdf,%edx
  4061bc:	83 fa 58             	cmp    $0x58,%edx
  4061bf:	75 05                	jne    0x4061c6
  4061c1:	6a 10                	push   $0x10
  4061c3:	41                   	inc    %ecx
  4061c4:	58                   	pop    %eax
  4061c5:	41                   	inc    %ecx
  4061c6:	0f b7 11             	movzwl (%ecx),%edx
  4061c9:	41                   	inc    %ecx
  4061ca:	41                   	inc    %ecx
  4061cb:	83 fa 30             	cmp    $0x30,%edx
  4061ce:	7c 0c                	jl     0x4061dc
  4061d0:	0f b7 f3             	movzwl %bx,%esi
  4061d3:	3b d6                	cmp    %esi,%edx
  4061d5:	7f 05                	jg     0x4061dc
  4061d7:	83 ea 30             	sub    $0x30,%edx
  4061da:	eb 1b                	jmp    0x4061f7
  4061dc:	66 3d 10 00          	cmp    $0x10,%ax
  4061e0:	75 23                	jne    0x406205
  4061e2:	8b f2                	mov    %edx,%esi
  4061e4:	83 e6 df             	and    $0xffffffdf,%esi
  4061e7:	83 fe 41             	cmp    $0x41,%esi
  4061ea:	7c 19                	jl     0x406205
  4061ec:	83 fe 46             	cmp    $0x46,%esi
  4061ef:	7f 14                	jg     0x406205
  4061f1:	83 e2 07             	and    $0x7,%edx
  4061f4:	83 c2 09             	add    $0x9,%edx
  4061f7:	0f b7 f0             	movzwl %ax,%esi
  4061fa:	0f af 75 fc          	imul   -0x4(%ebp),%esi
  4061fe:	03 f2                	add    %edx,%esi
  406200:	89 75 fc             	mov    %esi,-0x4(%ebp)
  406203:	eb c1                	jmp    0x4061c6
  406205:	8b 45 f8             	mov    -0x8(%ebp),%eax
  406208:	5e                   	pop    %esi
  406209:	0f af 45 fc          	imul   -0x4(%ebp),%eax
  40620d:	5b                   	pop    %ebx
  40620e:	c9                   	leave  
  40620f:	c2 04 00             	ret    $0x4
  406212:	68 00 04 00 00       	push   $0x400
  406217:	ff 74 24 0c          	pushl  0xc(%esp)
  40621b:	ff 74 24 0c          	pushl  0xc(%esp)
  40621f:	ff 15 34 81 40 00    	call   *0x408134
  406225:	c2 08 00             	ret    $0x8
  406228:	ff 25 30 81 40 00    	jmp    *0x408130
  40622e:	ff 25 f8 80 40 00    	jmp    *0x4080f8
  406234:	55                   	push   %ebp
  406235:	8b ec                	mov    %esp,%ebp
  406237:	83 ec 18             	sub    $0x18,%esp
  40623a:	8b 45 0c             	mov    0xc(%ebp),%eax
  40623d:	85 c0                	test   %eax,%eax
  40623f:	7d 11                	jge    0x406252
  406241:	8b 0d 1c 92 42 00    	mov    0x42921c,%ecx
  406247:	8d 04 85 04 00 00 00 	lea    0x4(,%eax,4),%eax
  40624e:	2b c8                	sub    %eax,%ecx
  406250:	8b 01                	mov    (%ecx),%eax
  406252:	8b 0d 78 a2 42 00    	mov    0x42a278,%ecx
  406258:	53                   	push   %ebx
  406259:	56                   	push   %esi
  40625a:	57                   	push   %edi
  40625b:	8d 0c 41             	lea    (%ecx,%eax,2),%ecx
  40625e:	b8 e0 81 42 00       	mov    $0x4281e0,%eax
  406263:	39 45 08             	cmp    %eax,0x8(%ebp)
  406266:	8b f0                	mov    %eax,%esi
  406268:	0f 82 12 02 00 00    	jb     0x406480
  40626e:	8b 55 08             	mov    0x8(%ebp),%edx
  406271:	2b d0                	sub    %eax,%edx
  406273:	d1 fa                	sar    %edx
  406275:	81 fa 00 08 00 00    	cmp    $0x800,%edx
  40627b:	0f 83 ff 01 00 00    	jae    0x406480
  406281:	8b 75 08             	mov    0x8(%ebp),%esi
  406284:	83 65 08 00          	andl   $0x0,0x8(%ebp)
  406288:	e9 f3 01 00 00       	jmp    0x406480
  40628d:	8b d6                	mov    %esi,%edx
  40628f:	2b d0                	sub    %eax,%edx
  406291:	83 e2 fe             	and    $0xfffffffe,%edx
  406294:	81 fa 00 08 00 00    	cmp    $0x800,%edx
  40629a:	0f 8d ec 01 00 00    	jge    0x40648c
  4062a0:	6a 02                	push   $0x2
  4062a2:	5a                   	pop    %edx
  4062a3:	03 ca                	add    %edx,%ecx
  4062a5:	66 83 ff 04          	cmp    $0x4,%di
  4062a9:	89 4d fc             	mov    %ecx,-0x4(%ebp)
  4062ac:	0f 83 bb 01 00 00    	jae    0x40646d
  4062b2:	8a 41 01             	mov    0x1(%ecx),%al
  4062b5:	8a 09                	mov    (%ecx),%cl
  4062b7:	8a d0                	mov    %al,%dl
  4062b9:	8a d9                	mov    %cl,%bl
  4062bb:	83 e2 7f             	and    $0x7f,%edx
  4062be:	83 e3 7f             	and    $0x7f,%ebx
  4062c1:	c1 e2 07             	shl    $0x7,%edx
  4062c4:	83 45 fc 02          	addl   $0x2,-0x4(%ebp)
  4062c8:	0b d3                	or     %ebx,%edx
  4062ca:	0f b6 d9             	movzbl %cl,%ebx
  4062cd:	0f b6 c0             	movzbl %al,%eax
  4062d0:	89 55 0c             	mov    %edx,0xc(%ebp)
  4062d3:	8b d3                	mov    %ebx,%edx
  4062d5:	b9 00 80 00 00       	mov    $0x8000,%ecx
  4062da:	89 45 f4             	mov    %eax,-0xc(%ebp)
  4062dd:	0b d1                	or     %ecx,%edx
  4062df:	0b c1                	or     %ecx,%eax
  4062e1:	66 83 ff 02          	cmp    $0x2,%di
  4062e5:	89 5d ec             	mov    %ebx,-0x14(%ebp)
  4062e8:	89 55 e8             	mov    %edx,-0x18(%ebp)
  4062eb:	89 45 f0             	mov    %eax,-0x10(%ebp)
  4062ee:	0f 85 1a 01 00 00    	jne    0x40640e
  4062f4:	6a 02                	push   $0x2
  4062f6:	5f                   	pop    %edi
  4062f7:	ff 15 b0 80 40 00    	call   *0x4080b0
  4062fd:	85 c0                	test   %eax,%eax
  4062ff:	79 18                	jns    0x406319
  406301:	66 3d 04 5a          	cmp    $0x5a04,%ax
  406305:	74 12                	je     0x406319
  406307:	83 7d f4 23          	cmpl   $0x23,-0xc(%ebp)
  40630b:	74 0c                	je     0x406319
  40630d:	83 7d f4 2e          	cmpl   $0x2e,-0xc(%ebp)
  406311:	74 06                	je     0x406319
  406313:	83 65 0c 00          	andl   $0x0,0xc(%ebp)
  406317:	eb 07                	jmp    0x406320
  406319:	c7 45 0c 01 00 00 00 	movl   $0x1,0xc(%ebp)
  406320:	83 3d c4 a2 42 00 00 	cmpl   $0x0,0x42a2c4
  406327:	74 03                	je     0x40632c
  406329:	6a 04                	push   $0x4
  40632b:	5f                   	pop    %edi
  40632c:	84 db                	test   %bl,%bl
  40632e:	79 3a                	jns    0x40636a
  406330:	8b c3                	mov    %ebx,%eax
  406332:	83 e3 3f             	and    $0x3f,%ebx
  406335:	83 e0 40             	and    $0x40,%eax
  406338:	50                   	push   %eax
  406339:	a1 78 a2 42 00       	mov    0x42a278,%eax
  40633e:	56                   	push   %esi
  40633f:	8d 04 58             	lea    (%eax,%ebx,2),%eax
  406342:	50                   	push   %eax
  406343:	68 28 84 40 00       	push   $0x408428
  406348:	68 02 00 00 80       	push   $0x80000002
  40634d:	e8 8d fd ff ff       	call   0x4060df
  406352:	66 83 3e 00          	cmpw   $0x0,(%esi)
  406356:	0f 85 99 00 00 00    	jne    0x4063f5
  40635c:	ff 75 f4             	pushl  -0xc(%ebp)
  40635f:	56                   	push   %esi
  406360:	e8 cf fe ff ff       	call   0x406234
  406365:	e9 85 00 00 00       	jmp    0x4063ef
  40636a:	83 fb 25             	cmp    $0x25,%ebx
  40636d:	75 0e                	jne    0x40637d
  40636f:	68 00 04 00 00       	push   $0x400
  406374:	56                   	push   %esi
  406375:	ff 15 fc 80 40 00    	call   *0x4080fc
  40637b:	eb 72                	jmp    0x4063ef
  40637d:	83 fb 24             	cmp    $0x24,%ebx
  406380:	75 69                	jne    0x4063eb
  406382:	68 00 04 00 00       	push   $0x400
  406387:	56                   	push   %esi
  406388:	ff 15 a4 80 40 00    	call   *0x4080a4
  40638e:	33 ff                	xor    %edi,%edi
  406390:	eb 59                	jmp    0x4063eb
  406392:	a1 44 a2 42 00       	mov    0x42a244,%eax
  406397:	33 c9                	xor    %ecx,%ecx
  406399:	4f                   	dec    %edi
  40639a:	3b c1                	cmp    %ecx,%eax
  40639c:	74 18                	je     0x4063b6
  40639e:	39 4d 0c             	cmp    %ecx,0xc(%ebp)
  4063a1:	74 13                	je     0x4063b6
  4063a3:	56                   	push   %esi
  4063a4:	51                   	push   %ecx
  4063a5:	51                   	push   %ecx
  4063a6:	ff 74 bd e8          	pushl  -0x18(%ebp,%edi,4)
  4063aa:	ff 35 48 a2 42 00    	pushl  0x42a248
  4063b0:	ff d0                	call   *%eax
  4063b2:	85 c0                	test   %eax,%eax
  4063b4:	74 39                	je     0x4063ef
  4063b6:	8d 45 f8             	lea    -0x8(%ebp),%eax
  4063b9:	50                   	push   %eax
  4063ba:	ff 74 bd e8          	pushl  -0x18(%ebp,%edi,4)
  4063be:	ff 35 48 a2 42 00    	pushl  0x42a248
  4063c4:	ff 15 7c 81 40 00    	call   *0x40817c
  4063ca:	85 c0                	test   %eax,%eax
  4063cc:	75 19                	jne    0x4063e7
  4063ce:	56                   	push   %esi
  4063cf:	ff 75 f8             	pushl  -0x8(%ebp)
  4063d2:	ff 15 80 81 40 00    	call   *0x408180
  4063d8:	ff 75 f8             	pushl  -0x8(%ebp)
  4063db:	8b d8                	mov    %eax,%ebx
  4063dd:	ff 15 a8 82 40 00    	call   *0x4082a8
  4063e3:	85 db                	test   %ebx,%ebx
  4063e5:	75 08                	jne    0x4063ef
  4063e7:	66 83 26 00          	andw   $0x0,(%esi)
  4063eb:	85 ff                	test   %edi,%edi
  4063ed:	75 a3                	jne    0x406392
  4063ef:	66 83 3e 00          	cmpw   $0x0,(%esi)
  4063f3:	74 11                	je     0x406406
  4063f5:	83 7d f4 1a          	cmpl   $0x1a,-0xc(%ebp)
  4063f9:	75 0b                	jne    0x406406
  4063fb:	68 80 84 40 00       	push   $0x408480
  406400:	56                   	push   %esi
  406401:	e8 28 fe ff ff       	call   0x40622e
  406406:	56                   	push   %esi
  406407:	e8 9a 00 00 00       	call   0x4064a6
  40640c:	eb 4c                	jmp    0x40645a
  40640e:	66 83 ff 03          	cmp    $0x3,%di
  406412:	75 33                	jne    0x406447
  406414:	83 7d 0c 1d          	cmpl   $0x1d,0xc(%ebp)
  406418:	75 0e                	jne    0x406428
  40641a:	ff 35 48 a2 42 00    	pushl  0x42a248
  406420:	56                   	push   %esi
  406421:	e8 33 fd ff ff       	call   0x406159
  406426:	eb 12                	jmp    0x40643a
  406428:	8b 45 0c             	mov    0xc(%ebp),%eax
  40642b:	c1 e0 0b             	shl    $0xb,%eax
  40642e:	05 00 b0 42 00       	add    $0x42b000,%eax
  406433:	50                   	push   %eax
  406434:	56                   	push   %esi
  406435:	e8 d8 fd ff ff       	call   0x406212
  40643a:	8b 45 0c             	mov    0xc(%ebp),%eax
  40643d:	83 c0 eb             	add    $0xffffffeb,%eax
  406440:	83 f8 07             	cmp    $0x7,%eax
  406443:	73 15                	jae    0x40645a
  406445:	eb bf                	jmp    0x406406
  406447:	66 83 ff 01          	cmp    $0x1,%di
  40644b:	75 0d                	jne    0x40645a
  40644d:	83 c8 ff             	or     $0xffffffff,%eax
  406450:	2b 45 0c             	sub    0xc(%ebp),%eax
  406453:	50                   	push   %eax
  406454:	56                   	push   %esi
  406455:	e8 da fd ff ff       	call   0x406234
  40645a:	56                   	push   %esi
  40645b:	e8 c8 fd ff ff       	call   0x406228
  406460:	8b 4d fc             	mov    -0x4(%ebp),%ecx
  406463:	8d 34 46             	lea    (%esi,%eax,2),%esi
  406466:	b8 e0 81 42 00       	mov    $0x4281e0,%eax
  40646b:	eb 13                	jmp    0x406480
  40646d:	75 0c                	jne    0x40647b
  40646f:	66 8b 39             	mov    (%ecx),%di
  406472:	66 89 3e             	mov    %di,(%esi)
  406475:	03 f2                	add    %edx,%esi
  406477:	03 ca                	add    %edx,%ecx
  406479:	eb 05                	jmp    0x406480
  40647b:	66 89 3e             	mov    %di,(%esi)
  40647e:	03 f2                	add    %edx,%esi
  406480:	66 8b 39             	mov    (%ecx),%di
  406483:	66 85 ff             	test   %di,%di
  406486:	0f 85 01 fe ff ff    	jne    0x40628d
  40648c:	66 83 26 00          	andw   $0x0,(%esi)
  406490:	83 7d 08 00          	cmpl   $0x0,0x8(%ebp)
  406494:	5f                   	pop    %edi
  406495:	5e                   	pop    %esi
  406496:	5b                   	pop    %ebx
  406497:	74 09                	je     0x4064a2
  406499:	50                   	push   %eax
  40649a:	ff 75 08             	pushl  0x8(%ebp)
  40649d:	e8 70 fd ff ff       	call   0x406212
  4064a2:	c9                   	leave  
  4064a3:	c2 08 00             	ret    $0x8
  4064a6:	55                   	push   %ebp
  4064a7:	56                   	push   %esi
  4064a8:	8b 74 24 0c          	mov    0xc(%esp),%esi
  4064ac:	57                   	push   %edi
  4064ad:	66 83 3e 5c          	cmpw   $0x5c,(%esi)
  4064b1:	75 18                	jne    0x4064cb
  4064b3:	66 83 7e 02 5c       	cmpw   $0x5c,0x2(%esi)
  4064b8:	75 11                	jne    0x4064cb
  4064ba:	66 83 7e 04 3f       	cmpw   $0x3f,0x4(%esi)
  4064bf:	75 0a                	jne    0x4064cb
  4064c1:	66 83 7e 06 5c       	cmpw   $0x5c,0x6(%esi)
  4064c6:	75 03                	jne    0x4064cb
  4064c8:	83 c6 08             	add    $0x8,%esi
  4064cb:	66 83 3e 00          	cmpw   $0x0,(%esi)
  4064cf:	74 0d                	je     0x4064de
  4064d1:	56                   	push   %esi
  4064d2:	e8 66 f7 ff ff       	call   0x405c3d
  4064d7:	85 c0                	test   %eax,%eax
  4064d9:	74 03                	je     0x4064de
  4064db:	83 c6 04             	add    $0x4,%esi
  4064de:	66 8b 06             	mov    (%esi),%ax
  4064e1:	8b ee                	mov    %esi,%ebp
  4064e3:	66 85 c0             	test   %ax,%ax
  4064e6:	8b fe                	mov    %esi,%edi
  4064e8:	74 40                	je     0x40652a
  4064ea:	53                   	push   %ebx
  4064eb:	8b 1d 4c 82 40 00    	mov    0x40824c,%ebx
  4064f1:	66 3d 1f 00          	cmp    $0x1f,%ax
  4064f5:	76 25                	jbe    0x40651c
  4064f7:	50                   	push   %eax
  4064f8:	68 ac a5 40 00       	push   $0x40a5ac
  4064fd:	e8 f1 f6 ff ff       	call   0x405bf3
  406502:	66 83 38 00          	cmpw   $0x0,(%eax)
  406506:	75 14                	jne    0x40651c
  406508:	56                   	push   %esi
  406509:	ff d3                	call   *%ebx
  40650b:	2b c6                	sub    %esi,%eax
  40650d:	d1 f8                	sar    %eax
  40650f:	50                   	push   %eax
  406510:	56                   	push   %esi
  406511:	57                   	push   %edi
  406512:	e8 8b f8 ff ff       	call   0x405da2
  406517:	57                   	push   %edi
  406518:	ff d3                	call   *%ebx
  40651a:	8b f8                	mov    %eax,%edi
  40651c:	56                   	push   %esi
  40651d:	ff d3                	call   *%ebx
  40651f:	8b f0                	mov    %eax,%esi
  406521:	66 8b 06             	mov    (%esi),%ax
  406524:	66 85 c0             	test   %ax,%ax
  406527:	75 c8                	jne    0x4064f1
  406529:	5b                   	pop    %ebx
  40652a:	66 83 27 00          	andw   $0x0,(%edi)
  40652e:	57                   	push   %edi
  40652f:	55                   	push   %ebp
  406530:	ff 15 fc 81 40 00    	call   *0x4081fc
  406536:	8b f8                	mov    %eax,%edi
  406538:	66 8b 07             	mov    (%edi),%ax
  40653b:	66 3d 20 00          	cmp    $0x20,%ax
  40653f:	74 06                	je     0x406547
  406541:	66 3d 5c 00          	cmp    $0x5c,%ax
  406545:	75 08                	jne    0x40654f
  406547:	66 83 27 00          	andw   $0x0,(%edi)
  40654b:	3b ef                	cmp    %edi,%ebp
  40654d:	72 df                	jb     0x40652e
  40654f:	5f                   	pop    %edi
  406550:	5e                   	pop    %esi
  406551:	5d                   	pop    %ebp
  406552:	c2 04 00             	ret    $0x4
  406555:	56                   	push   %esi
  406556:	be 78 67 42 00       	mov    $0x426778,%esi
  40655b:	56                   	push   %esi
  40655c:	ff 74 24 0c          	pushl  0xc(%esp)
  406560:	ff 15 3c 81 40 00    	call   *0x40813c
  406566:	83 f8 ff             	cmp    $0xffffffff,%eax
  406569:	74 0b                	je     0x406576
  40656b:	50                   	push   %eax
  40656c:	ff 15 50 81 40 00    	call   *0x408150
  406572:	8b c6                	mov    %esi,%eax
  406574:	eb 02                	jmp    0x406578
  406576:	33 c0                	xor    %eax,%eax
  406578:	5e                   	pop    %esi
  406579:	c2 04 00             	ret    $0x4
  40657c:	55                   	push   %ebp
  40657d:	8b ec                	mov    %esp,%ebp
  40657f:	81 ec 3c 02 00 00    	sub    $0x23c,%esp
  406585:	56                   	push   %esi
  406586:	be 04 01 00 00       	mov    $0x104,%esi
  40658b:	8d 85 c4 fd ff ff    	lea    -0x23c(%ebp),%eax
  406591:	56                   	push   %esi
  406592:	50                   	push   %eax
  406593:	ff 15 fc 80 40 00    	call   *0x4080fc
  406599:	3b c6                	cmp    %esi,%eax
  40659b:	5e                   	pop    %esi
  40659c:	76 02                	jbe    0x4065a0
  40659e:	33 c0                	xor    %eax,%eax
  4065a0:	85 c0                	test   %eax,%eax
  4065a2:	74 0f                	je     0x4065b3
  4065a4:	66 83 bc 45 c2 fd ff 	cmpw   $0x5c,-0x23e(%ebp,%eax,2)
  4065ab:	ff 5c 
  4065ad:	74 04                	je     0x4065b3
  4065af:	33 c9                	xor    %ecx,%ecx
  4065b1:	eb 03                	jmp    0x4065b6
  4065b3:	33 c9                	xor    %ecx,%ecx
  4065b5:	41                   	inc    %ecx
  4065b6:	ff 75 08             	pushl  0x8(%ebp)
  4065b9:	8d 0c 4d 14 a0 40 00 	lea    0x40a014(,%ecx,2),%ecx
  4065c0:	8d 84 45 c4 fd ff ff 	lea    -0x23c(%ebp,%eax,2),%eax
  4065c7:	51                   	push   %ecx
  4065c8:	68 c0 a5 40 00       	push   $0x40a5c0
  4065cd:	50                   	push   %eax
  4065ce:	ff 15 e0 81 40 00    	call   *0x4081e0
  4065d4:	83 c4 10             	add    $0x10,%esp
  4065d7:	8d 85 c4 fd ff ff    	lea    -0x23c(%ebp),%eax
  4065dd:	6a 08                	push   $0x8
  4065df:	6a 00                	push   $0x0
  4065e1:	50                   	push   %eax
  4065e2:	ff 15 70 81 40 00    	call   *0x408170
  4065e8:	c9                   	leave  
  4065e9:	c2 04 00             	ret    $0x4
  4065ec:	8b 44 24 04          	mov    0x4(%esp),%eax
  4065f0:	56                   	push   %esi
  4065f1:	8b f0                	mov    %eax,%esi
  4065f3:	57                   	push   %edi
  4065f4:	c1 e6 03             	shl    $0x3,%esi
  4065f7:	8b be 10 a4 40 00    	mov    0x40a410(%esi),%edi
  4065fd:	57                   	push   %edi
  4065fe:	ff 15 04 81 40 00    	call   *0x408104
  406604:	85 c0                	test   %eax,%eax
  406606:	75 0a                	jne    0x406612
  406608:	57                   	push   %edi
  406609:	e8 6e ff ff ff       	call   0x40657c
  40660e:	85 c0                	test   %eax,%eax
  406610:	74 0f                	je     0x406621
  406612:	ff b6 14 a4 40 00    	pushl  0x40a414(%esi)
  406618:	50                   	push   %eax
  406619:	ff 15 00 81 40 00    	call   *0x408100
  40661f:	eb 02                	jmp    0x406623
  406621:	33 c0                	xor    %eax,%eax
  406623:	5f                   	pop    %edi
  406624:	5e                   	pop    %esi
  406625:	c2 04 00             	ret    $0x4
  406628:	55                   	push   %ebp
  406629:	8b ec                	mov    %esp,%ebp
  40662b:	83 ec 1c             	sub    $0x1c,%esp
  40662e:	56                   	push   %esi
  40662f:	8b 75 08             	mov    0x8(%ebp),%esi
  406632:	57                   	push   %edi
  406633:	8b 3d 0c 82 40 00    	mov    0x40820c,%edi
  406639:	eb 0a                	jmp    0x406645
  40663b:	8d 45 e4             	lea    -0x1c(%ebp),%eax
  40663e:	50                   	push   %eax
  40663f:	ff 15 08 82 40 00    	call   *0x408208
  406645:	6a 01                	push   $0x1
  406647:	56                   	push   %esi
  406648:	56                   	push   %esi
  406649:	8d 45 e4             	lea    -0x1c(%ebp),%eax
  40664c:	6a 00                	push   $0x0
  40664e:	50                   	push   %eax
  40664f:	ff d7                	call   *%edi
  406651:	85 c0                	test   %eax,%eax
  406653:	75 e6                	jne    0x40663b
  406655:	5f                   	pop    %edi
  406656:	5e                   	pop    %esi
  406657:	c9                   	leave  
  406658:	c2 04 00             	ret    $0x4
  40665b:	55                   	push   %ebp
  40665c:	8b ec                	mov    %esp,%ebp
  40665e:	81 ec 00 01 00 00    	sub    $0x100,%esp
  406664:	33 c0                	xor    %eax,%eax
  406666:	8d 8d 00 ff ff ff    	lea    -0x100(%ebp),%ecx
  40666c:	50                   	push   %eax
  40666d:	50                   	push   %eax
  40666e:	68 00 01 00 00       	push   $0x100
  406673:	51                   	push   %ecx
  406674:	6a ff                	push   $0xffffffff
  406676:	ff 75 0c             	pushl  0xc(%ebp)
  406679:	50                   	push   %eax
  40667a:	50                   	push   %eax
  40667b:	ff 15 60 81 40 00    	call   *0x408160
  406681:	85 c0                	test   %eax,%eax
  406683:	74 12                	je     0x406697
  406685:	8d 85 00 ff ff ff    	lea    -0x100(%ebp),%eax
  40668b:	50                   	push   %eax
  40668c:	ff 75 08             	pushl  0x8(%ebp)
  40668f:	ff 15 00 81 40 00    	call   *0x408100
  406695:	eb 02                	jmp    0x406699
  406697:	33 c0                	xor    %eax,%eax
  406699:	c9                   	leave  
  40669a:	c2 08 00             	ret    $0x8
  40669d:	83 3d cc 7d 42 00 00 	cmpl   $0x0,0x427dcc
  4066a4:	56                   	push   %esi
  4066a5:	75 2d                	jne    0x4066d4
  4066a7:	33 c9                	xor    %ecx,%ecx
  4066a9:	6a 08                	push   $0x8
  4066ab:	8b c1                	mov    %ecx,%eax
  4066ad:	5e                   	pop    %esi
  4066ae:	8b d0                	mov    %eax,%edx
  4066b0:	80 e2 01             	and    $0x1,%dl
  4066b3:	f6 da                	neg    %dl
  4066b5:	1b d2                	sbb    %edx,%edx
  4066b7:	81 e2 20 83 b8 ed    	and    $0xedb88320,%edx
  4066bd:	d1 e8                	shr    %eax
  4066bf:	33 c2                	xor    %edx,%eax
  4066c1:	4e                   	dec    %esi
  4066c2:	75 ea                	jne    0x4066ae
  4066c4:	89 04 8d c8 7d 42 00 	mov    %eax,0x427dc8(,%ecx,4)
  4066cb:	41                   	inc    %ecx
  4066cc:	81 f9 00 01 00 00    	cmp    $0x100,%ecx
  4066d2:	7c d5                	jl     0x4066a9
  4066d4:	8b 54 24 10          	mov    0x10(%esp),%edx
  4066d8:	8b 44 24 08          	mov    0x8(%esp),%eax
  4066dc:	85 d2                	test   %edx,%edx
  4066de:	f7 d0                	not    %eax
  4066e0:	76 23                	jbe    0x406705
  4066e2:	8b 4c 24 0c          	mov    0xc(%esp),%ecx
  4066e6:	57                   	push   %edi
  4066e7:	0f b6 39             	movzbl (%ecx),%edi
  4066ea:	8b f0                	mov    %eax,%esi
  4066ec:	81 e6 ff 00 00 00    	and    $0xff,%esi
  4066f2:	33 f7                	xor    %edi,%esi
  4066f4:	c1 e8 08             	shr    $0x8,%eax
  4066f7:	8b 34 b5 c8 7d 42 00 	mov    0x427dc8(,%esi,4),%esi
  4066fe:	33 c6                	xor    %esi,%eax
  406700:	41                   	inc    %ecx
  406701:	4a                   	dec    %edx
  406702:	75 e3                	jne    0x4066e7
  406704:	5f                   	pop    %edi
  406705:	f7 d0                	not    %eax
  406707:	5e                   	pop    %esi
  406708:	c2 0c 00             	ret    $0xc
  40670b:	b8 80 00 00 00       	mov    $0x80,%eax
  406710:	48                   	dec    %eax
  406711:	c6 04 08 00          	movb   $0x0,(%eax,%ecx,1)
  406715:	75 f9                	jne    0x406710
  406717:	83 49 78 ff          	orl    $0xffffffff,0x78(%ecx)
  40671b:	33 c0                	xor    %eax,%eax
  40671d:	40                   	inc    %eax
  40671e:	89 41 68             	mov    %eax,0x68(%ecx)
  406721:	89 41 64             	mov    %eax,0x64(%ecx)
  406724:	89 41 60             	mov    %eax,0x60(%ecx)
  406727:	89 41 5c             	mov    %eax,0x5c(%ecx)
  40672a:	c3                   	ret    
  40672b:	55                   	push   %ebp
  40672c:	8b ec                	mov    %esp,%ebp
  40672e:	81 ec 90 00 00 00    	sub    $0x90,%esp
  406734:	53                   	push   %ebx
  406735:	56                   	push   %esi
  406736:	57                   	push   %edi
  406737:	6a 22                	push   $0x22
  406739:	8b f1                	mov    %ecx,%esi
  40673b:	59                   	pop    %ecx
  40673c:	8d bd 78 ff ff ff    	lea    -0x88(%ebp),%edi
  406742:	89 b5 70 ff ff ff    	mov    %esi,-0x90(%ebp)
  406748:	f3 a5                	rep movsl %ds:(%esi),%es:(%edi)
  40674a:	83 7d d0 ff          	cmpl   $0xffffffff,-0x30(%ebp)
  40674e:	75 08                	jne    0x406758
  406750:	33 c0                	xor    %eax,%eax
  406752:	40                   	inc    %eax
  406753:	e9 20 0a 00 00       	jmp    0x407178
  406758:	8b 5d bc             	mov    -0x44(%ebp),%ebx
  40675b:	8b 75 ac             	mov    -0x54(%ebp),%esi
  40675e:	8b 85 78 ff ff ff    	mov    -0x88(%ebp),%eax
  406764:	83 f8 1c             	cmp    $0x1c,%eax
  406767:	0f 87 08 0a 00 00    	ja     0x407175
  40676d:	ff 24 85 7d 71 40 00 	jmp    *0x40717d(,%eax,4)
  406774:	83 7d 94 00          	cmpl   $0x0,-0x6c(%ebp)
  406778:	0f 84 e2 09 00 00    	je     0x407160
  40677e:	8b 45 90             	mov    -0x70(%ebp),%eax
  406781:	ff 4d 94             	decl   -0x6c(%ebp)
  406784:	ff 45 90             	incl   -0x70(%ebp)
  406787:	8a 00                	mov    (%eax),%al
  406789:	3c e1                	cmp    $0xe1,%al
  40678b:	0f 87 e4 09 00 00    	ja     0x407175
  406791:	0f b6 c0             	movzbl %al,%eax
  406794:	6a 2d                	push   $0x2d
  406796:	99                   	cltd   
  406797:	59                   	pop    %ecx
  406798:	f7 f9                	idiv   %ecx
  40679a:	6a 09                	push   $0x9
  40679c:	59                   	pop    %ecx
  40679d:	8b f0                	mov    %eax,%esi
  40679f:	0f b6 c2             	movzbl %dl,%eax
  4067a2:	99                   	cltd   
  4067a3:	f7 f9                	idiv   %ecx
  4067a5:	8b ce                	mov    %esi,%ecx
  4067a7:	0f b6 fa             	movzbl %dl,%edi
  4067aa:	33 d2                	xor    %edx,%edx
  4067ac:	89 7d c4             	mov    %edi,-0x3c(%ebp)
  4067af:	42                   	inc    %edx
  4067b0:	d3 e2                	shl    %cl,%edx
  4067b2:	8b c8                	mov    %eax,%ecx
  4067b4:	4a                   	dec    %edx
  4067b5:	89 55 e4             	mov    %edx,-0x1c(%ebp)
  4067b8:	33 d2                	xor    %edx,%edx
  4067ba:	42                   	inc    %edx
  4067bb:	d3 e2                	shl    %cl,%edx
  4067bd:	8d 0c 37             	lea    (%edi,%esi,1),%ecx
  4067c0:	be 00 03 00 00       	mov    $0x300,%esi
  4067c5:	d3 e6                	shl    %cl,%esi
  4067c7:	4a                   	dec    %edx
  4067c8:	89 55 e8             	mov    %edx,-0x18(%ebp)
  4067cb:	81 c6 36 07 00 00    	add    $0x736,%esi
  4067d1:	8d 3c 36             	lea    (%esi,%esi,1),%edi
  4067d4:	3b 7d 88             	cmp    -0x78(%ebp),%edi
  4067d7:	74 26                	je     0x4067ff
  4067d9:	83 7d fc 00          	cmpl   $0x0,-0x4(%ebp)
  4067dd:	74 09                	je     0x4067e8
  4067df:	ff 75 fc             	pushl  -0x4(%ebp)
  4067e2:	ff 15 08 81 40 00    	call   *0x408108
  4067e8:	57                   	push   %edi
  4067e9:	6a 40                	push   $0x40
  4067eb:	ff 15 0c 81 40 00    	call   *0x40810c
  4067f1:	85 c0                	test   %eax,%eax
  4067f3:	89 45 fc             	mov    %eax,-0x4(%ebp)
  4067f6:	0f 84 79 09 00 00    	je     0x407175
  4067fc:	89 7d 88             	mov    %edi,-0x78(%ebp)
  4067ff:	85 f6                	test   %esi,%esi
  406801:	74 0c                	je     0x40680f
  406803:	8b 45 fc             	mov    -0x4(%ebp),%eax
  406806:	4e                   	dec    %esi
  406807:	66 c7 04 70 00 04    	movw   $0x400,(%eax,%esi,2)
  40680d:	75 f4                	jne    0x406803
  40680f:	83 65 b8 00          	andl   $0x0,-0x48(%ebp)
  406813:	83 65 c0 00          	andl   $0x0,-0x40(%ebp)
  406817:	eb 26                	jmp    0x40683f
  406819:	83 7d 94 00          	cmpl   $0x0,-0x6c(%ebp)
  40681d:	0f 84 a6 08 00 00    	je     0x4070c9
  406823:	8b 45 b8             	mov    -0x48(%ebp),%eax
  406826:	ff 4d 94             	decl   -0x6c(%ebp)
  406829:	8b c8                	mov    %eax,%ecx
  40682b:	8b 45 90             	mov    -0x70(%ebp),%eax
  40682e:	c1 e1 03             	shl    $0x3,%ecx
  406831:	0f b6 00             	movzbl (%eax),%eax
  406834:	d3 e0                	shl    %cl,%eax
  406836:	09 45 c0             	or     %eax,-0x40(%ebp)
  406839:	ff 45 90             	incl   -0x70(%ebp)
  40683c:	ff 45 b8             	incl   -0x48(%ebp)
  40683f:	83 7d b8 04          	cmpl   $0x4,-0x48(%ebp)
  406843:	7c d4                	jl     0x406819
  406845:	8b 45 c0             	mov    -0x40(%ebp),%eax
  406848:	3b 45 8c             	cmp    -0x74(%ebp),%eax
  40684b:	74 28                	je     0x406875
  40684d:	83 7d f8 00          	cmpl   $0x0,-0x8(%ebp)
  406851:	89 45 8c             	mov    %eax,-0x74(%ebp)
  406854:	74 09                	je     0x40685f
  406856:	ff 75 f8             	pushl  -0x8(%ebp)
  406859:	ff 15 08 81 40 00    	call   *0x408108
  40685f:	ff 75 c0             	pushl  -0x40(%ebp)
  406862:	6a 40                	push   $0x40
  406864:	ff 15 0c 81 40 00    	call   *0x40810c
  40686a:	85 c0                	test   %eax,%eax
  40686c:	89 45 f8             	mov    %eax,-0x8(%ebp)
  40686f:	0f 84 00 09 00 00    	je     0x407175
  406875:	8b 45 f8             	mov    -0x8(%ebp),%eax
  406878:	8b 4d 8c             	mov    -0x74(%ebp),%ecx
  40687b:	c7 45 b8 05 00 00 00 	movl   $0x5,-0x48(%ebp)
  406882:	80 64 08 ff 00       	andb   $0x0,-0x1(%eax,%ecx,1)
  406887:	eb 21                	jmp    0x4068aa
  406889:	83 7d 94 00          	cmpl   $0x0,-0x6c(%ebp)
  40688d:	0f 84 45 08 00 00    	je     0x4070d8
  406893:	8b 4d 90             	mov    -0x70(%ebp),%ecx
  406896:	8b 45 f4             	mov    -0xc(%ebp),%eax
  406899:	ff 4d 94             	decl   -0x6c(%ebp)
  40689c:	0f b6 09             	movzbl (%ecx),%ecx
  40689f:	c1 e0 08             	shl    $0x8,%eax
  4068a2:	0b c1                	or     %ecx,%eax
  4068a4:	ff 45 90             	incl   -0x70(%ebp)
  4068a7:	89 45 f4             	mov    %eax,-0xc(%ebp)
  4068aa:	8b 45 b8             	mov    -0x48(%ebp),%eax
  4068ad:	ff 4d b8             	decl   -0x48(%ebp)
  4068b0:	85 c0                	test   %eax,%eax
  4068b2:	75 d5                	jne    0x406889
  4068b4:	8b 45 a0             	mov    -0x60(%ebp),%eax
  4068b7:	8b 4d c8             	mov    -0x38(%ebp),%ecx
  4068ba:	23 45 e4             	and    -0x1c(%ebp),%eax
  4068bd:	c7 85 7c ff ff ff 06 	movl   $0x6,-0x84(%ebp)
  4068c4:	00 00 00 
  4068c7:	c1 e1 04             	shl    $0x4,%ecx
  4068ca:	89 45 b4             	mov    %eax,-0x4c(%ebp)
  4068cd:	03 c8                	add    %eax,%ecx
  4068cf:	8b 45 fc             	mov    -0x4(%ebp),%eax
  4068d2:	8d 34 48             	lea    (%eax,%ecx,2),%esi
  4068d5:	e9 6c 06 00 00       	jmp    0x406f46
  4068da:	33 d2                	xor    %edx,%edx
  4068dc:	39 55 c0             	cmp    %edx,-0x40(%ebp)
  4068df:	75 6f                	jne    0x406950
  4068e1:	0f b6 45 a4          	movzbl -0x5c(%ebp),%eax
  4068e5:	8b 75 a0             	mov    -0x60(%ebp),%esi
  4068e8:	b1 08                	mov    $0x8,%cl
  4068ea:	2a 4d c4             	sub    -0x3c(%ebp),%cl
  4068ed:	23 75 e8             	and    -0x18(%ebp),%esi
  4068f0:	d3 e8                	shr    %cl,%eax
  4068f2:	8b 4d c4             	mov    -0x3c(%ebp),%ecx
  4068f5:	d3 e6                	shl    %cl,%esi
  4068f7:	8b 4d fc             	mov    -0x4(%ebp),%ecx
  4068fa:	03 c6                	add    %esi,%eax
  4068fc:	8d 04 40             	lea    (%eax,%eax,2),%eax
  4068ff:	c1 e0 09             	shl    $0x9,%eax
  406902:	83 7d c8 04          	cmpl   $0x4,-0x38(%ebp)
  406906:	8d 84 08 6c 0e 00 00 	lea    0xe6c(%eax,%ecx,1),%eax
  40690d:	89 45 a8             	mov    %eax,-0x58(%ebp)
  406910:	7d 05                	jge    0x406917
  406912:	89 55 c8             	mov    %edx,-0x38(%ebp)
  406915:	eb 10                	jmp    0x406927
  406917:	83 7d c8 0a          	cmpl   $0xa,-0x38(%ebp)
  40691b:	7d 06                	jge    0x406923
  40691d:	83 6d c8 03          	subl   $0x3,-0x38(%ebp)
  406921:	eb 04                	jmp    0x406927
  406923:	83 6d c8 06          	subl   $0x6,-0x38(%ebp)
  406927:	39 55 cc             	cmp    %edx,-0x34(%ebp)
  40692a:	74 1c                	je     0x406948
  40692c:	8b 45 ec             	mov    -0x14(%ebp),%eax
  40692f:	2b 45 d4             	sub    -0x2c(%ebp),%eax
  406932:	3b 45 8c             	cmp    -0x74(%ebp),%eax
  406935:	72 03                	jb     0x40693a
  406937:	03 45 8c             	add    -0x74(%ebp),%eax
  40693a:	8b 4d f8             	mov    -0x8(%ebp),%ecx
  40693d:	33 db                	xor    %ebx,%ebx
  40693f:	43                   	inc    %ebx
  406940:	8a 04 08             	mov    (%eax,%ecx,1),%al
  406943:	88 45 a5             	mov    %al,-0x5b(%ebp)
  406946:	eb 68                	jmp    0x4069b0
  406948:	33 db                	xor    %ebx,%ebx
  40694a:	43                   	inc    %ebx
  40694b:	e9 cd 01 00 00       	jmp    0x406b1d
  406950:	8b 45 fc             	mov    -0x4(%ebp),%eax
  406953:	8b 4d c8             	mov    -0x38(%ebp),%ecx
  406956:	c7 45 cc 01 00 00 00 	movl   $0x1,-0x34(%ebp)
  40695d:	c7 85 7c ff ff ff 07 	movl   $0x7,-0x84(%ebp)
  406964:	00 00 00 
  406967:	8d b4 48 80 01 00 00 	lea    0x180(%eax,%ecx,2),%esi
  40696e:	e9 d3 05 00 00       	jmp    0x406f46
  406973:	83 7d 94 00          	cmpl   $0x0,-0x6c(%ebp)
  406977:	0f 84 67 07 00 00    	je     0x4070e4
  40697d:	8b 4d 90             	mov    -0x70(%ebp),%ecx
  406980:	8b 45 f4             	mov    -0xc(%ebp),%eax
  406983:	c1 65 f0 08          	shll   $0x8,-0x10(%ebp)
  406987:	0f b6 09             	movzbl (%ecx),%ecx
  40698a:	ff 4d 94             	decl   -0x6c(%ebp)
  40698d:	c1 e0 08             	shl    $0x8,%eax
  406990:	0b c1                	or     %ecx,%eax
  406992:	ff 45 90             	incl   -0x70(%ebp)
  406995:	89 45 f4             	mov    %eax,-0xc(%ebp)
  406998:	8b 45 c0             	mov    -0x40(%ebp),%eax
  40699b:	39 45 b8             	cmp    %eax,-0x48(%ebp)
  40699e:	0f 85 ad 00 00 00    	jne    0x406a51
  4069a4:	81 fb 00 01 00 00    	cmp    $0x100,%ebx
  4069aa:	0f 8d 05 01 00 00    	jge    0x406ab5
  4069b0:	0f b6 45 a5          	movzbl -0x5b(%ebp),%eax
  4069b4:	d0 65 a5             	shlb   -0x5b(%ebp)
  4069b7:	8b 4d a8             	mov    -0x58(%ebp),%ecx
  4069ba:	c1 e8 07             	shr    $0x7,%eax
  4069bd:	89 45 b8             	mov    %eax,-0x48(%ebp)
  4069c0:	40                   	inc    %eax
  4069c1:	c1 e0 08             	shl    $0x8,%eax
  4069c4:	03 c3                	add    %ebx,%eax
  4069c6:	8d 34 41             	lea    (%ecx,%eax,2),%esi
  4069c9:	8b 4d f0             	mov    -0x10(%ebp),%ecx
  4069cc:	c1 e9 0b             	shr    $0xb,%ecx
  4069cf:	66 8b 06             	mov    (%esi),%ax
  4069d2:	89 75 ac             	mov    %esi,-0x54(%ebp)
  4069d5:	0f b7 d0             	movzwl %ax,%edx
  4069d8:	0f af ca             	imul   %edx,%ecx
  4069db:	39 4d f4             	cmp    %ecx,-0xc(%ebp)
  4069de:	73 1a                	jae    0x4069fa
  4069e0:	83 65 c0 00          	andl   $0x0,-0x40(%ebp)
  4069e4:	89 4d f0             	mov    %ecx,-0x10(%ebp)
  4069e7:	b9 00 08 00 00       	mov    $0x800,%ecx
  4069ec:	2b ca                	sub    %edx,%ecx
  4069ee:	c1 f9 05             	sar    $0x5,%ecx
  4069f1:	03 c8                	add    %eax,%ecx
  4069f3:	03 db                	add    %ebx,%ebx
  4069f5:	66 89 0e             	mov    %cx,(%esi)
  4069f8:	eb 1d                	jmp    0x406a17
  4069fa:	29 4d f0             	sub    %ecx,-0x10(%ebp)
  4069fd:	29 4d f4             	sub    %ecx,-0xc(%ebp)
  406a00:	66 8b c8             	mov    %ax,%cx
  406a03:	c7 45 c0 01 00 00 00 	movl   $0x1,-0x40(%ebp)
  406a0a:	66 c1 e9 05          	shr    $0x5,%cx
  406a0e:	2b c1                	sub    %ecx,%eax
  406a10:	8d 5c 1b 01          	lea    0x1(%ebx,%ebx,1),%ebx
  406a14:	66 89 06             	mov    %ax,(%esi)
  406a17:	81 7d f0 00 00 00 01 	cmpl   $0x1000000,-0x10(%ebp)
  406a1e:	89 5d bc             	mov    %ebx,-0x44(%ebp)
  406a21:	0f 83 71 ff ff ff    	jae    0x406998
  406a27:	e9 47 ff ff ff       	jmp    0x406973
  406a2c:	83 7d 94 00          	cmpl   $0x0,-0x6c(%ebp)
  406a30:	0f 84 ba 06 00 00    	je     0x4070f0
  406a36:	8b 4d 90             	mov    -0x70(%ebp),%ecx
  406a39:	8b 45 f4             	mov    -0xc(%ebp),%eax
  406a3c:	c1 65 f0 08          	shll   $0x8,-0x10(%ebp)
  406a40:	0f b6 09             	movzbl (%ecx),%ecx
  406a43:	ff 4d 94             	decl   -0x6c(%ebp)
  406a46:	c1 e0 08             	shl    $0x8,%eax
  406a49:	0b c1                	or     %ecx,%eax
  406a4b:	ff 45 90             	incl   -0x70(%ebp)
  406a4e:	89 45 f4             	mov    %eax,-0xc(%ebp)
  406a51:	81 fb 00 01 00 00    	cmp    $0x100,%ebx
  406a57:	7d 5c                	jge    0x406ab5
  406a59:	8b 45 a8             	mov    -0x58(%ebp),%eax
  406a5c:	8d 14 1b             	lea    (%ebx,%ebx,1),%edx
  406a5f:	8b 4d f0             	mov    -0x10(%ebp),%ecx
  406a62:	8d 34 02             	lea    (%edx,%eax,1),%esi
  406a65:	c1 e9 0b             	shr    $0xb,%ecx
  406a68:	66 8b 06             	mov    (%esi),%ax
  406a6b:	89 75 ac             	mov    %esi,-0x54(%ebp)
  406a6e:	0f b7 f8             	movzwl %ax,%edi
  406a71:	0f af cf             	imul   %edi,%ecx
  406a74:	39 4d f4             	cmp    %ecx,-0xc(%ebp)
  406a77:	73 16                	jae    0x406a8f
  406a79:	89 4d f0             	mov    %ecx,-0x10(%ebp)
  406a7c:	b9 00 08 00 00       	mov    $0x800,%ecx
  406a81:	2b cf                	sub    %edi,%ecx
  406a83:	c1 f9 05             	sar    $0x5,%ecx
  406a86:	03 c8                	add    %eax,%ecx
  406a88:	03 db                	add    %ebx,%ebx
  406a8a:	66 89 0e             	mov    %cx,(%esi)
  406a8d:	eb 15                	jmp    0x406aa4
  406a8f:	29 4d f0             	sub    %ecx,-0x10(%ebp)
  406a92:	29 4d f4             	sub    %ecx,-0xc(%ebp)
  406a95:	66 8b c8             	mov    %ax,%cx
  406a98:	8d 5a 01             	lea    0x1(%edx),%ebx
  406a9b:	66 c1 e9 05          	shr    $0x5,%cx
  406a9f:	2b c1                	sub    %ecx,%eax
  406aa1:	66 89 06             	mov    %ax,(%esi)
  406aa4:	81 7d f0 00 00 00 01 	cmpl   $0x1000000,-0x10(%ebp)
  406aab:	89 5d bc             	mov    %ebx,-0x44(%ebp)
  406aae:	73 a1                	jae    0x406a51
  406ab0:	e9 77 ff ff ff       	jmp    0x406a2c
  406ab5:	83 65 cc 00          	andl   $0x0,-0x34(%ebp)
  406ab9:	8a 45 bc             	mov    -0x44(%ebp),%al
  406abc:	88 45 a4             	mov    %al,-0x5c(%ebp)
  406abf:	83 7d 9c 00          	cmpl   $0x0,-0x64(%ebp)
  406ac3:	0f 84 3f 06 00 00    	je     0x407108
  406ac9:	8b 4d 98             	mov    -0x68(%ebp),%ecx
  406acc:	8a 45 a4             	mov    -0x5c(%ebp),%al
  406acf:	8b 55 f8             	mov    -0x8(%ebp),%edx
  406ad2:	ff 45 a0             	incl   -0x60(%ebp)
  406ad5:	ff 45 98             	incl   -0x68(%ebp)
  406ad8:	ff 4d 9c             	decl   -0x64(%ebp)
  406adb:	88 01                	mov    %al,(%ecx)
  406add:	8b 4d ec             	mov    -0x14(%ebp),%ecx
  406ae0:	88 04 11             	mov    %al,(%ecx,%edx,1)
  406ae3:	8d 41 01             	lea    0x1(%ecx),%eax
  406ae6:	33 d2                	xor    %edx,%edx
  406ae8:	f7 75 8c             	divl   -0x74(%ebp)
  406aeb:	e9 95 01 00 00       	jmp    0x406c85
  406af0:	83 7d 94 00          	cmpl   $0x0,-0x6c(%ebp)
  406af4:	0f 84 02 06 00 00    	je     0x4070fc
  406afa:	8b 4d 90             	mov    -0x70(%ebp),%ecx
  406afd:	8b 45 f4             	mov    -0xc(%ebp),%eax
  406b00:	c1 65 f0 08          	shll   $0x8,-0x10(%ebp)
  406b04:	0f b6 09             	movzbl (%ecx),%ecx
  406b07:	ff 4d 94             	decl   -0x6c(%ebp)
  406b0a:	c1 e0 08             	shl    $0x8,%eax
  406b0d:	0b c1                	or     %ecx,%eax
  406b0f:	ff 45 90             	incl   -0x70(%ebp)
  406b12:	89 45 f4             	mov    %eax,-0xc(%ebp)
  406b15:	81 fb 00 01 00 00    	cmp    $0x100,%ebx
  406b1b:	7d 9c                	jge    0x406ab9
  406b1d:	8b 45 a8             	mov    -0x58(%ebp),%eax
  406b20:	8d 14 1b             	lea    (%ebx,%ebx,1),%edx
  406b23:	8b 4d f0             	mov    -0x10(%ebp),%ecx
  406b26:	8d 34 02             	lea    (%edx,%eax,1),%esi
  406b29:	c1 e9 0b             	shr    $0xb,%ecx
  406b2c:	66 8b 06             	mov    (%esi),%ax
  406b2f:	89 75 ac             	mov    %esi,-0x54(%ebp)
  406b32:	0f b7 f8             	movzwl %ax,%edi
  406b35:	0f af cf             	imul   %edi,%ecx
  406b38:	39 4d f4             	cmp    %ecx,-0xc(%ebp)
  406b3b:	73 16                	jae    0x406b53
  406b3d:	89 4d f0             	mov    %ecx,-0x10(%ebp)
  406b40:	b9 00 08 00 00       	mov    $0x800,%ecx
  406b45:	2b cf                	sub    %edi,%ecx
  406b47:	c1 f9 05             	sar    $0x5,%ecx
  406b4a:	03 c8                	add    %eax,%ecx
  406b4c:	03 db                	add    %ebx,%ebx
  406b4e:	66 89 0e             	mov    %cx,(%esi)
  406b51:	eb 15                	jmp    0x406b68
  406b53:	29 4d f0             	sub    %ecx,-0x10(%ebp)
  406b56:	29 4d f4             	sub    %ecx,-0xc(%ebp)
  406b59:	66 8b c8             	mov    %ax,%cx
  406b5c:	8d 5a 01             	lea    0x1(%edx),%ebx
  406b5f:	66 c1 e9 05          	shr    $0x5,%cx
  406b63:	2b c1                	sub    %ecx,%eax
  406b65:	66 89 06             	mov    %ax,(%esi)
  406b68:	81 7d f0 00 00 00 01 	cmpl   $0x1000000,-0x10(%ebp)
  406b6f:	89 5d bc             	mov    %ebx,-0x44(%ebp)
  406b72:	73 a1                	jae    0x406b15
  406b74:	e9 77 ff ff ff       	jmp    0x406af0
  406b79:	83 7d c0 01          	cmpl   $0x1,-0x40(%ebp)
  406b7d:	75 1c                	jne    0x406b9b
  406b7f:	8b 45 fc             	mov    -0x4(%ebp),%eax
  406b82:	8b 4d c8             	mov    -0x38(%ebp),%ecx
  406b85:	c7 85 7c ff ff ff 08 	movl   $0x8,-0x84(%ebp)
  406b8c:	00 00 00 
  406b8f:	8d b4 48 98 01 00 00 	lea    0x198(%eax,%ecx,2),%esi
  406b96:	e9 ab 03 00 00       	jmp    0x406f46
  406b9b:	8b 45 dc             	mov    -0x24(%ebp),%eax
  406b9e:	c7 45 80 16 00 00 00 	movl   $0x16,-0x80(%ebp)
  406ba5:	89 45 e0             	mov    %eax,-0x20(%ebp)
  406ba8:	8b 45 d8             	mov    -0x28(%ebp),%eax
  406bab:	89 45 dc             	mov    %eax,-0x24(%ebp)
  406bae:	8b 45 d4             	mov    -0x2c(%ebp),%eax
  406bb1:	89 45 d8             	mov    %eax,-0x28(%ebp)
  406bb4:	33 c0                	xor    %eax,%eax
  406bb6:	83 7d c8 07          	cmpl   $0x7,-0x38(%ebp)
  406bba:	0f 9d c0             	setge  %al
  406bbd:	48                   	dec    %eax
  406bbe:	24 fd                	and    $0xfd,%al
  406bc0:	83 c0 0a             	add    $0xa,%eax
  406bc3:	89 45 c8             	mov    %eax,-0x38(%ebp)
  406bc6:	8b 45 fc             	mov    -0x4(%ebp),%eax
  406bc9:	05 64 06 00 00       	add    $0x664,%eax
  406bce:	89 45 a8             	mov    %eax,-0x58(%ebp)
  406bd1:	8b 75 a8             	mov    -0x58(%ebp),%esi
  406bd4:	c7 85 7c ff ff ff 12 	movl   $0x12,-0x84(%ebp)
  406bdb:	00 00 00 
  406bde:	e9 63 03 00 00       	jmp    0x406f46
  406be3:	83 7d c0 00          	cmpl   $0x0,-0x40(%ebp)
  406be7:	75 21                	jne    0x406c0a
  406be9:	8b 45 c8             	mov    -0x38(%ebp),%eax
  406bec:	8b 4d fc             	mov    -0x4(%ebp),%ecx
  406bef:	83 c0 0f             	add    $0xf,%eax
  406bf2:	c7 85 7c ff ff ff 09 	movl   $0x9,-0x84(%ebp)
  406bf9:	00 00 00 
  406bfc:	c1 e0 04             	shl    $0x4,%eax
  406bff:	03 45 b4             	add    -0x4c(%ebp),%eax
  406c02:	8d 34 41             	lea    (%ecx,%eax,2),%esi
  406c05:	e9 3c 03 00 00       	jmp    0x406f46
  406c0a:	8b 45 fc             	mov    -0x4(%ebp),%eax
  406c0d:	8b 4d c8             	mov    -0x38(%ebp),%ecx
  406c10:	c7 85 7c ff ff ff 0a 	movl   $0xa,-0x84(%ebp)
  406c17:	00 00 00 
  406c1a:	8d b4 48 b0 01 00 00 	lea    0x1b0(%eax,%ecx,2),%esi
  406c21:	e9 20 03 00 00       	jmp    0x406f46
  406c26:	83 7d c0 00          	cmpl   $0x0,-0x40(%ebp)
  406c2a:	0f 85 b1 00 00 00    	jne    0x406ce1
  406c30:	83 7d a0 00          	cmpl   $0x0,-0x60(%ebp)
  406c34:	0f 84 3b 05 00 00    	je     0x407175
  406c3a:	33 c0                	xor    %eax,%eax
  406c3c:	83 7d c8 07          	cmpl   $0x7,-0x38(%ebp)
  406c40:	0f 9d c0             	setge  %al
  406c43:	8d 44 00 09          	lea    0x9(%eax,%eax,1),%eax
  406c47:	89 45 c8             	mov    %eax,-0x38(%ebp)
  406c4a:	83 7d 9c 00          	cmpl   $0x0,-0x64(%ebp)
  406c4e:	0f 84 c0 04 00 00    	je     0x407114
  406c54:	8b 45 ec             	mov    -0x14(%ebp),%eax
  406c57:	2b 45 d4             	sub    -0x2c(%ebp),%eax
  406c5a:	3b 45 8c             	cmp    -0x74(%ebp),%eax
  406c5d:	72 03                	jb     0x406c62
  406c5f:	03 45 8c             	add    -0x74(%ebp),%eax
  406c62:	8b 55 f8             	mov    -0x8(%ebp),%edx
  406c65:	8a 0c 10             	mov    (%eax,%edx,1),%cl
  406c68:	8b 45 ec             	mov    -0x14(%ebp),%eax
  406c6b:	88 4d a4             	mov    %cl,-0x5c(%ebp)
  406c6e:	88 0c 10             	mov    %cl,(%eax,%edx,1)
  406c71:	40                   	inc    %eax
  406c72:	33 d2                	xor    %edx,%edx
  406c74:	f7 75 8c             	divl   -0x74(%ebp)
  406c77:	8b 45 98             	mov    -0x68(%ebp),%eax
  406c7a:	ff 45 a0             	incl   -0x60(%ebp)
  406c7d:	ff 45 98             	incl   -0x68(%ebp)
  406c80:	ff 4d 9c             	decl   -0x64(%ebp)
  406c83:	88 08                	mov    %cl,(%eax)
  406c85:	89 55 ec             	mov    %edx,-0x14(%ebp)
  406c88:	c7 85 78 ff ff ff 02 	movl   $0x2,-0x88(%ebp)
  406c8f:	00 00 00 
  406c92:	e9 c7 fa ff ff       	jmp    0x40675e
  406c97:	83 7d c0 00          	cmpl   $0x0,-0x40(%ebp)
  406c9b:	75 05                	jne    0x406ca2
  406c9d:	8b 45 d8             	mov    -0x28(%ebp),%eax
  406ca0:	eb 36                	jmp    0x406cd8
  406ca2:	8b 45 fc             	mov    -0x4(%ebp),%eax
  406ca5:	8b 4d c8             	mov    -0x38(%ebp),%ecx
  406ca8:	c7 85 7c ff ff ff 0b 	movl   $0xb,-0x84(%ebp)
  406caf:	00 00 00 
  406cb2:	8d b4 48 c8 01 00 00 	lea    0x1c8(%eax,%ecx,2),%esi
  406cb9:	e9 88 02 00 00       	jmp    0x406f46
  406cbe:	83 7d c0 00          	cmpl   $0x0,-0x40(%ebp)
  406cc2:	75 05                	jne    0x406cc9
  406cc4:	8b 45 dc             	mov    -0x24(%ebp),%eax
  406cc7:	eb 09                	jmp    0x406cd2
  406cc9:	8b 4d dc             	mov    -0x24(%ebp),%ecx
  406ccc:	8b 45 e0             	mov    -0x20(%ebp),%eax
  406ccf:	89 4d e0             	mov    %ecx,-0x20(%ebp)
  406cd2:	8b 4d d8             	mov    -0x28(%ebp),%ecx
  406cd5:	89 4d dc             	mov    %ecx,-0x24(%ebp)
  406cd8:	8b 4d d4             	mov    -0x2c(%ebp),%ecx
  406cdb:	89 45 d4             	mov    %eax,-0x2c(%ebp)
  406cde:	89 4d d8             	mov    %ecx,-0x28(%ebp)
  406ce1:	8b 45 fc             	mov    -0x4(%ebp),%eax
  406ce4:	c7 45 80 15 00 00 00 	movl   $0x15,-0x80(%ebp)
  406ceb:	05 68 0a 00 00       	add    $0xa68,%eax
  406cf0:	89 45 a8             	mov    %eax,-0x58(%ebp)
  406cf3:	e9 d9 fe ff ff       	jmp    0x406bd1
  406cf8:	33 c0                	xor    %eax,%eax
  406cfa:	83 7d c8 07          	cmpl   $0x7,-0x38(%ebp)
  406cfe:	0f 9d c0             	setge  %al
  406d01:	48                   	dec    %eax
  406d02:	24 fd                	and    $0xfd,%al
  406d04:	83 c0 0b             	add    $0xb,%eax
  406d07:	89 45 c8             	mov    %eax,-0x38(%ebp)
  406d0a:	e9 9a 01 00 00       	jmp    0x406ea9
  406d0f:	8b 45 d0             	mov    -0x30(%ebp),%eax
  406d12:	83 f8 04             	cmp    $0x4,%eax
  406d15:	7c 03                	jl     0x406d1a
  406d17:	6a 03                	push   $0x3
  406d19:	58                   	pop    %eax
  406d1a:	8b 4d fc             	mov    -0x4(%ebp),%ecx
  406d1d:	c7 45 c0 06 00 00 00 	movl   $0x6,-0x40(%ebp)
  406d24:	c1 e0 07             	shl    $0x7,%eax
  406d27:	c7 45 84 19 00 00 00 	movl   $0x19,-0x7c(%ebp)
  406d2e:	8d 84 08 60 03 00 00 	lea    0x360(%eax,%ecx,1),%eax
  406d35:	89 45 a8             	mov    %eax,-0x58(%ebp)
  406d38:	e9 ce 02 00 00       	jmp    0x40700b
  406d3d:	83 fb 04             	cmp    $0x4,%ebx
  406d40:	7c 34                	jl     0x406d76
  406d42:	8b cb                	mov    %ebx,%ecx
  406d44:	8b c3                	mov    %ebx,%eax
  406d46:	d1 f9                	sar    %ecx
  406d48:	83 e0 01             	and    $0x1,%eax
  406d4b:	49                   	dec    %ecx
  406d4c:	0c 02                	or     $0x2,%al
  406d4e:	d3 e0                	shl    %cl,%eax
  406d50:	83 fb 0e             	cmp    $0xe,%ebx
  406d53:	89 45 d4             	mov    %eax,-0x2c(%ebp)
  406d56:	7d 14                	jge    0x406d6c
  406d58:	8b 55 fc             	mov    -0x4(%ebp),%edx
  406d5b:	2b c3                	sub    %ebx,%eax
  406d5d:	89 4d c0             	mov    %ecx,-0x40(%ebp)
  406d60:	8d 84 42 5e 05 00 00 	lea    0x55e(%edx,%eax,2),%eax
  406d67:	e9 81 00 00 00       	jmp    0x406ded
  406d6c:	33 db                	xor    %ebx,%ebx
  406d6e:	83 c1 fc             	add    $0xfffffffc,%ecx
  406d71:	89 4d b8             	mov    %ecx,-0x48(%ebp)
  406d74:	eb 33                	jmp    0x406da9
  406d76:	89 5d d4             	mov    %ebx,-0x2c(%ebp)
  406d79:	e9 28 01 00 00       	jmp    0x406ea6
  406d7e:	83 7d 94 00          	cmpl   $0x0,-0x6c(%ebp)
  406d82:	0f 84 98 03 00 00    	je     0x407120
  406d88:	8b 4d 90             	mov    -0x70(%ebp),%ecx
  406d8b:	8b 45 f4             	mov    -0xc(%ebp),%eax
  406d8e:	c1 65 f0 08          	shll   $0x8,-0x10(%ebp)
  406d92:	0f b6 09             	movzbl (%ecx),%ecx
  406d95:	ff 4d 94             	decl   -0x6c(%ebp)
  406d98:	c1 e0 08             	shl    $0x8,%eax
  406d9b:	0b c1                	or     %ecx,%eax
  406d9d:	ff 45 90             	incl   -0x70(%ebp)
  406da0:	89 45 f4             	mov    %eax,-0xc(%ebp)
  406da3:	8b 45 d4             	mov    -0x2c(%ebp),%eax
  406da6:	ff 4d b8             	decl   -0x48(%ebp)
  406da9:	83 7d b8 00          	cmpl   $0x0,-0x48(%ebp)
  406dad:	7e 27                	jle    0x406dd6
  406daf:	8b 4d f4             	mov    -0xc(%ebp),%ecx
  406db2:	03 db                	add    %ebx,%ebx
  406db4:	d1 6d f0             	shrl   -0x10(%ebp)
  406db7:	3b 4d f0             	cmp    -0x10(%ebp),%ecx
  406dba:	89 5d bc             	mov    %ebx,-0x44(%ebp)
  406dbd:	72 0c                	jb     0x406dcb
  406dbf:	8b 4d f0             	mov    -0x10(%ebp),%ecx
  406dc2:	29 4d f4             	sub    %ecx,-0xc(%ebp)
  406dc5:	83 cb 01             	or     $0x1,%ebx
  406dc8:	89 5d bc             	mov    %ebx,-0x44(%ebp)
  406dcb:	81 7d f0 00 00 00 01 	cmpl   $0x1000000,-0x10(%ebp)
  406dd2:	73 d2                	jae    0x406da6
  406dd4:	eb a8                	jmp    0x406d7e
  406dd6:	c1 e3 04             	shl    $0x4,%ebx
  406dd9:	03 c3                	add    %ebx,%eax
  406ddb:	c7 45 c0 04 00 00 00 	movl   $0x4,-0x40(%ebp)
  406de2:	89 45 d4             	mov    %eax,-0x2c(%ebp)
  406de5:	8b 45 fc             	mov    -0x4(%ebp),%eax
  406de8:	05 44 06 00 00       	add    $0x644,%eax
  406ded:	33 db                	xor    %ebx,%ebx
  406def:	89 45 a8             	mov    %eax,-0x58(%ebp)
  406df2:	c7 45 b0 01 00 00 00 	movl   $0x1,-0x50(%ebp)
  406df9:	89 5d bc             	mov    %ebx,-0x44(%ebp)
  406dfc:	89 5d b8             	mov    %ebx,-0x48(%ebp)
  406dff:	eb 28                	jmp    0x406e29
  406e01:	83 7d 94 00          	cmpl   $0x0,-0x6c(%ebp)
  406e05:	0f 84 21 03 00 00    	je     0x40712c
  406e0b:	8b 4d 90             	mov    -0x70(%ebp),%ecx
  406e0e:	8b 45 f4             	mov    -0xc(%ebp),%eax
  406e11:	c1 65 f0 08          	shll   $0x8,-0x10(%ebp)
  406e15:	0f b6 09             	movzbl (%ecx),%ecx
  406e18:	ff 4d 94             	decl   -0x6c(%ebp)
  406e1b:	c1 e0 08             	shl    $0x8,%eax
  406e1e:	0b c1                	or     %ecx,%eax
  406e20:	ff 45 90             	incl   -0x70(%ebp)
  406e23:	89 45 f4             	mov    %eax,-0xc(%ebp)
  406e26:	ff 45 b8             	incl   -0x48(%ebp)
  406e29:	8b 45 c0             	mov    -0x40(%ebp),%eax
  406e2c:	39 45 b8             	cmp    %eax,-0x48(%ebp)
  406e2f:	7d 72                	jge    0x406ea3
  406e31:	8b 45 b0             	mov    -0x50(%ebp),%eax
  406e34:	8b 55 f0             	mov    -0x10(%ebp),%edx
  406e37:	c1 ea 0b             	shr    $0xb,%edx
  406e3a:	8d 3c 00             	lea    (%eax,%eax,1),%edi
  406e3d:	8b 45 a8             	mov    -0x58(%ebp),%eax
  406e40:	8d 34 07             	lea    (%edi,%eax,1),%esi
  406e43:	89 75 ac             	mov    %esi,-0x54(%ebp)
  406e46:	66 8b 06             	mov    (%esi),%ax
  406e49:	0f b7 c8             	movzwl %ax,%ecx
  406e4c:	0f af d1             	imul   %ecx,%edx
  406e4f:	39 55 f4             	cmp    %edx,-0xc(%ebp)
  406e52:	73 17                	jae    0x406e6b
  406e54:	89 55 f0             	mov    %edx,-0x10(%ebp)
  406e57:	ba 00 08 00 00       	mov    $0x800,%edx
  406e5c:	2b d1                	sub    %ecx,%edx
  406e5e:	c1 fa 05             	sar    $0x5,%edx
  406e61:	03 d0                	add    %eax,%edx
  406e63:	d1 65 b0             	shll   -0x50(%ebp)
  406e66:	66 89 16             	mov    %dx,(%esi)
  406e69:	eb 2a                	jmp    0x406e95
  406e6b:	33 c9                	xor    %ecx,%ecx
  406e6d:	29 55 f0             	sub    %edx,-0x10(%ebp)
  406e70:	41                   	inc    %ecx
  406e71:	29 55 f4             	sub    %edx,-0xc(%ebp)
  406e74:	8b d9                	mov    %ecx,%ebx
  406e76:	8b 4d b8             	mov    -0x48(%ebp),%ecx
  406e79:	d3 e3                	shl    %cl,%ebx
  406e7b:	8b cb                	mov    %ebx,%ecx
  406e7d:	8b 5d bc             	mov    -0x44(%ebp),%ebx
  406e80:	0b d9                	or     %ecx,%ebx
  406e82:	66 8b c8             	mov    %ax,%cx
  406e85:	66 c1 e9 05          	shr    $0x5,%cx
  406e89:	2b c1                	sub    %ecx,%eax
  406e8b:	47                   	inc    %edi
  406e8c:	89 5d bc             	mov    %ebx,-0x44(%ebp)
  406e8f:	66 89 06             	mov    %ax,(%esi)
  406e92:	89 7d b0             	mov    %edi,-0x50(%ebp)
  406e95:	81 7d f0 00 00 00 01 	cmpl   $0x1000000,-0x10(%ebp)
  406e9c:	73 88                	jae    0x406e26
  406e9e:	e9 5e ff ff ff       	jmp    0x406e01
  406ea3:	01 5d d4             	add    %ebx,-0x2c(%ebp)
  406ea6:	ff 45 d4             	incl   -0x2c(%ebp)
  406ea9:	8b 45 d4             	mov    -0x2c(%ebp),%eax
  406eac:	85 c0                	test   %eax,%eax
  406eae:	0f 84 84 02 00 00    	je     0x407138
  406eb4:	3b 45 a0             	cmp    -0x60(%ebp),%eax
  406eb7:	0f 87 b8 02 00 00    	ja     0x407175
  406ebd:	83 45 d0 02          	addl   $0x2,-0x30(%ebp)
  406ec1:	8b 45 d0             	mov    -0x30(%ebp),%eax
  406ec4:	01 45 a0             	add    %eax,-0x60(%ebp)
  406ec7:	83 7d 9c 00          	cmpl   $0x0,-0x64(%ebp)
  406ecb:	0f 84 6d 02 00 00    	je     0x40713e
  406ed1:	8b 45 ec             	mov    -0x14(%ebp),%eax
  406ed4:	2b 45 d4             	sub    -0x2c(%ebp),%eax
  406ed7:	3b 45 8c             	cmp    -0x74(%ebp),%eax
  406eda:	72 03                	jb     0x406edf
  406edc:	03 45 8c             	add    -0x74(%ebp),%eax
  406edf:	8b 55 f8             	mov    -0x8(%ebp),%edx
  406ee2:	8a 0c 10             	mov    (%eax,%edx,1),%cl
  406ee5:	8b 45 ec             	mov    -0x14(%ebp),%eax
  406ee8:	88 4d a4             	mov    %cl,-0x5c(%ebp)
  406eeb:	88 0c 10             	mov    %cl,(%eax,%edx,1)
  406eee:	40                   	inc    %eax
  406eef:	33 d2                	xor    %edx,%edx
  406ef1:	f7 75 8c             	divl   -0x74(%ebp)
  406ef4:	8b 45 98             	mov    -0x68(%ebp),%eax
  406ef7:	ff 45 98             	incl   -0x68(%ebp)
  406efa:	ff 4d 9c             	decl   -0x64(%ebp)
  406efd:	ff 4d d0             	decl   -0x30(%ebp)
  406f00:	83 7d d0 00          	cmpl   $0x0,-0x30(%ebp)
  406f04:	88 08                	mov    %cl,(%eax)
  406f06:	89 55 ec             	mov    %edx,-0x14(%ebp)
  406f09:	7f bc                	jg     0x406ec7
  406f0b:	e9 78 fd ff ff       	jmp    0x406c88
  406f10:	83 7d c0 00          	cmpl   $0x0,-0x40(%ebp)
  406f14:	75 20                	jne    0x406f36
  406f16:	8b 45 b4             	mov    -0x4c(%ebp),%eax
  406f19:	83 65 d0 00          	andl   $0x0,-0x30(%ebp)
  406f1d:	8b 4d a8             	mov    -0x58(%ebp),%ecx
  406f20:	c1 e0 04             	shl    $0x4,%eax
  406f23:	8d 44 01 04          	lea    0x4(%ecx,%eax,1),%eax
  406f27:	89 45 a8             	mov    %eax,-0x58(%ebp)
  406f2a:	c7 45 c0 03 00 00 00 	movl   $0x3,-0x40(%ebp)
  406f31:	e9 ce 00 00 00       	jmp    0x407004
  406f36:	8b 45 a8             	mov    -0x58(%ebp),%eax
  406f39:	c7 85 7c ff ff ff 13 	movl   $0x13,-0x84(%ebp)
  406f40:	00 00 00 
  406f43:	8d 70 02             	lea    0x2(%eax),%esi
  406f46:	89 75 ac             	mov    %esi,-0x54(%ebp)
  406f49:	66 8b 06             	mov    (%esi),%ax
  406f4c:	8b 4d f0             	mov    -0x10(%ebp),%ecx
  406f4f:	0f b7 d0             	movzwl %ax,%edx
  406f52:	c1 e9 0b             	shr    $0xb,%ecx
  406f55:	0f af ca             	imul   %edx,%ecx
  406f58:	39 4d f4             	cmp    %ecx,-0xc(%ebp)
  406f5b:	73 18                	jae    0x406f75
  406f5d:	89 4d f0             	mov    %ecx,-0x10(%ebp)
  406f60:	b9 00 08 00 00       	mov    $0x800,%ecx
  406f65:	2b ca                	sub    %edx,%ecx
  406f67:	c1 f9 05             	sar    $0x5,%ecx
  406f6a:	03 c8                	add    %eax,%ecx
  406f6c:	83 65 c0 00          	andl   $0x0,-0x40(%ebp)
  406f70:	66 89 0e             	mov    %cx,(%esi)
  406f73:	eb 19                	jmp    0x406f8e
  406f75:	29 4d f0             	sub    %ecx,-0x10(%ebp)
  406f78:	29 4d f4             	sub    %ecx,-0xc(%ebp)
  406f7b:	66 8b c8             	mov    %ax,%cx
  406f7e:	c7 45 c0 01 00 00 00 	movl   $0x1,-0x40(%ebp)
  406f85:	66 c1 e9 05          	shr    $0x5,%cx
  406f89:	2b c1                	sub    %ecx,%eax
  406f8b:	66 89 06             	mov    %ax,(%esi)
  406f8e:	81 7d f0 00 00 00 01 	cmpl   $0x1000000,-0x10(%ebp)
  406f95:	73 25                	jae    0x406fbc
  406f97:	83 7d 94 00          	cmpl   $0x0,-0x6c(%ebp)
  406f9b:	0f 84 a9 01 00 00    	je     0x40714a
  406fa1:	8b 4d 90             	mov    -0x70(%ebp),%ecx
  406fa4:	8b 45 f4             	mov    -0xc(%ebp),%eax
  406fa7:	c1 65 f0 08          	shll   $0x8,-0x10(%ebp)
  406fab:	0f b6 09             	movzbl (%ecx),%ecx
  406fae:	ff 4d 94             	decl   -0x6c(%ebp)
  406fb1:	c1 e0 08             	shl    $0x8,%eax
  406fb4:	0b c1                	or     %ecx,%eax
  406fb6:	ff 45 90             	incl   -0x70(%ebp)
  406fb9:	89 45 f4             	mov    %eax,-0xc(%ebp)
  406fbc:	8b 85 7c ff ff ff    	mov    -0x84(%ebp),%eax
  406fc2:	89 85 78 ff ff ff    	mov    %eax,-0x88(%ebp)
  406fc8:	e9 91 f7 ff ff       	jmp    0x40675e
  406fcd:	83 7d c0 00          	cmpl   $0x0,-0x40(%ebp)
  406fd1:	75 1c                	jne    0x406fef
  406fd3:	8b 45 b4             	mov    -0x4c(%ebp),%eax
  406fd6:	8b 4d a8             	mov    -0x58(%ebp),%ecx
  406fd9:	c1 e0 04             	shl    $0x4,%eax
  406fdc:	c7 45 d0 08 00 00 00 	movl   $0x8,-0x30(%ebp)
  406fe3:	8d 84 01 04 01 00 00 	lea    0x104(%ecx,%eax,1),%eax
  406fea:	e9 38 ff ff ff       	jmp    0x406f27
  406fef:	81 45 a8 04 02 00 00 	addl   $0x204,-0x58(%ebp)
  406ff6:	c7 45 d0 10 00 00 00 	movl   $0x10,-0x30(%ebp)
  406ffd:	c7 45 c0 08 00 00 00 	movl   $0x8,-0x40(%ebp)
  407004:	c7 45 84 14 00 00 00 	movl   $0x14,-0x7c(%ebp)
  40700b:	8b 45 c0             	mov    -0x40(%ebp),%eax
  40700e:	c7 45 b0 01 00 00 00 	movl   $0x1,-0x50(%ebp)
  407015:	89 45 b8             	mov    %eax,-0x48(%ebp)
  407018:	eb 28                	jmp    0x407042
  40701a:	83 7d 94 00          	cmpl   $0x0,-0x6c(%ebp)
  40701e:	0f 84 32 01 00 00    	je     0x407156
  407024:	8b 4d 90             	mov    -0x70(%ebp),%ecx
  407027:	8b 45 f4             	mov    -0xc(%ebp),%eax
  40702a:	c1 65 f0 08          	shll   $0x8,-0x10(%ebp)
  40702e:	0f b6 09             	movzbl (%ecx),%ecx
  407031:	ff 4d 94             	decl   -0x6c(%ebp)
  407034:	c1 e0 08             	shl    $0x8,%eax
  407037:	0b c1                	or     %ecx,%eax
  407039:	ff 45 90             	incl   -0x70(%ebp)
  40703c:	89 45 f4             	mov    %eax,-0xc(%ebp)
  40703f:	ff 4d b8             	decl   -0x48(%ebp)
  407042:	83 7d b8 00          	cmpl   $0x0,-0x48(%ebp)
  407046:	7e 5e                	jle    0x4070a6
  407048:	8b 45 b0             	mov    -0x50(%ebp),%eax
  40704b:	8b 4d f0             	mov    -0x10(%ebp),%ecx
  40704e:	c1 e9 0b             	shr    $0xb,%ecx
  407051:	8d 14 00             	lea    (%eax,%eax,1),%edx
  407054:	8b 45 a8             	mov    -0x58(%ebp),%eax
  407057:	8d 34 02             	lea    (%edx,%eax,1),%esi
  40705a:	89 75 ac             	mov    %esi,-0x54(%ebp)
  40705d:	66 8b 06             	mov    (%esi),%ax
  407060:	0f b7 f8             	movzwl %ax,%edi
  407063:	0f af cf             	imul   %edi,%ecx
  407066:	39 4d f4             	cmp    %ecx,-0xc(%ebp)
  407069:	73 17                	jae    0x407082
  40706b:	89 4d f0             	mov    %ecx,-0x10(%ebp)
  40706e:	b9 00 08 00 00       	mov    $0x800,%ecx
  407073:	2b cf                	sub    %edi,%ecx
  407075:	c1 f9 05             	sar    $0x5,%ecx
  407078:	03 c8                	add    %eax,%ecx
  40707a:	d1 65 b0             	shll   -0x50(%ebp)
  40707d:	66 89 0e             	mov    %cx,(%esi)
  407080:	eb 16                	jmp    0x407098
  407082:	29 4d f0             	sub    %ecx,-0x10(%ebp)
  407085:	29 4d f4             	sub    %ecx,-0xc(%ebp)
  407088:	66 8b c8             	mov    %ax,%cx
  40708b:	66 c1 e9 05          	shr    $0x5,%cx
  40708f:	2b c1                	sub    %ecx,%eax
  407091:	42                   	inc    %edx
  407092:	66 89 06             	mov    %ax,(%esi)
  407095:	89 55 b0             	mov    %edx,-0x50(%ebp)
  407098:	81 7d f0 00 00 00 01 	cmpl   $0x1000000,-0x10(%ebp)
  40709f:	73 9e                	jae    0x40703f
  4070a1:	e9 74 ff ff ff       	jmp    0x40701a
  4070a6:	8b 4d c0             	mov    -0x40(%ebp),%ecx
  4070a9:	8b 5d b0             	mov    -0x50(%ebp),%ebx
  4070ac:	33 c0                	xor    %eax,%eax
  4070ae:	40                   	inc    %eax
  4070af:	d3 e0                	shl    %cl,%eax
  4070b1:	2b d8                	sub    %eax,%ebx
  4070b3:	8b 45 84             	mov    -0x7c(%ebp),%eax
  4070b6:	89 5d bc             	mov    %ebx,-0x44(%ebp)
  4070b9:	e9 04 ff ff ff       	jmp    0x406fc2
  4070be:	01 5d d0             	add    %ebx,-0x30(%ebp)
  4070c1:	8b 45 80             	mov    -0x80(%ebp),%eax
  4070c4:	e9 f9 fe ff ff       	jmp    0x406fc2
  4070c9:	c7 85 78 ff ff ff 01 	movl   $0x1,-0x88(%ebp)
  4070d0:	00 00 00 
  4070d3:	e9 88 00 00 00       	jmp    0x407160
  4070d8:	c7 85 78 ff ff ff 03 	movl   $0x3,-0x88(%ebp)
  4070df:	00 00 00 
  4070e2:	eb 7c                	jmp    0x407160
  4070e4:	c7 85 78 ff ff ff 0d 	movl   $0xd,-0x88(%ebp)
  4070eb:	00 00 00 
  4070ee:	eb 70                	jmp    0x407160
  4070f0:	c7 85 78 ff ff ff 0e 	movl   $0xe,-0x88(%ebp)
  4070f7:	00 00 00 
  4070fa:	eb 64                	jmp    0x407160
  4070fc:	c7 85 78 ff ff ff 0f 	movl   $0xf,-0x88(%ebp)
  407103:	00 00 00 
  407106:	eb 58                	jmp    0x407160
  407108:	c7 85 78 ff ff ff 1a 	movl   $0x1a,-0x88(%ebp)
  40710f:	00 00 00 
  407112:	eb 4c                	jmp    0x407160
  407114:	c7 85 78 ff ff ff 1b 	movl   $0x1b,-0x88(%ebp)
  40711b:	00 00 00 
  40711e:	eb 40                	jmp    0x407160
  407120:	c7 85 78 ff ff ff 0c 	movl   $0xc,-0x88(%ebp)
  407127:	00 00 00 
  40712a:	eb 34                	jmp    0x407160
  40712c:	c7 85 78 ff ff ff 10 	movl   $0x10,-0x88(%ebp)
  407133:	00 00 00 
  407136:	eb 28                	jmp    0x407160
  407138:	83 4d d0 ff          	orl    $0xffffffff,-0x30(%ebp)
  40713c:	eb 22                	jmp    0x407160
  40713e:	c7 85 78 ff ff ff 1c 	movl   $0x1c,-0x88(%ebp)
  407145:	00 00 00 
  407148:	eb 16                	jmp    0x407160
  40714a:	c7 85 78 ff ff ff 05 	movl   $0x5,-0x88(%ebp)
  407151:	00 00 00 
  407154:	eb 0a                	jmp    0x407160
  407156:	c7 85 78 ff ff ff 18 	movl   $0x18,-0x88(%ebp)
  40715d:	00 00 00 
  407160:	8b bd 70 ff ff ff    	mov    -0x90(%ebp),%edi
  407166:	6a 22                	push   $0x22
  407168:	59                   	pop    %ecx
  407169:	8d b5 78 ff ff ff    	lea    -0x88(%ebp),%esi
  40716f:	f3 a5                	rep movsl %ds:(%esi),%es:(%edi)
  407171:	33 c0                	xor    %eax,%eax
  407173:	eb 03                	jmp    0x407178
  407175:	83 c8 ff             	or     $0xffffffff,%eax
  407178:	5f                   	pop    %edi
  407179:	5e                   	pop    %esi
  40717a:	5b                   	pop    %ebx
  40717b:	c9                   	leave  
  40717c:	c3                   	ret    
  40717d:	74 67                	je     0x4071e6
  40717f:	40                   	inc    %eax
  407180:	00 19                	add    %bl,(%ecx)
  407182:	68 40 00 b4 68       	push   $0x68b40040
  407187:	40                   	inc    %eax
  407188:	00 89 68 40 00 49    	add    %cl,0x49004068(%ecx)
  40718e:	6f                   	outsl  %ds:(%esi),(%dx)
  40718f:	40                   	inc    %eax
  407190:	00 97 6f 40 00 da    	add    %dl,-0x25ffbf91(%edi)
  407196:	68 40 00 79 6b       	push   $0x6b790040
  40719b:	40                   	inc    %eax
  40719c:	00 e3                	add    %ah,%bl
  40719e:	6b 40 00 26          	imul   $0x26,0x0(%eax),%eax
  4071a2:	6c                   	insb   (%dx),%es:(%edi)
  4071a3:	40                   	inc    %eax
  4071a4:	00 97 6c 40 00 be    	add    %dl,-0x41ffbf94(%edi)
  4071aa:	6c                   	insb   (%dx),%es:(%edi)
  4071ab:	40                   	inc    %eax
  4071ac:	00 7e 6d             	add    %bh,0x6d(%esi)
  4071af:	40                   	inc    %eax
  4071b0:	00 73 69             	add    %dh,0x69(%ebx)
  4071b3:	40                   	inc    %eax
  4071b4:	00 2c 6a             	add    %ch,(%edx,%ebp,2)
  4071b7:	40                   	inc    %eax
  4071b8:	00 f0                	add    %dh,%al
  4071ba:	6a 40                	push   $0x40
  4071bc:	00 01                	add    %al,(%ecx)
  4071be:	6e                   	outsb  %ds:(%esi),(%dx)
  4071bf:	40                   	inc    %eax
  4071c0:	00 d1                	add    %dl,%cl
  4071c2:	6b 40 00 10          	imul   $0x10,0x0(%eax),%eax
  4071c6:	6f                   	outsl  %ds:(%esi),(%dx)
  4071c7:	40                   	inc    %eax
  4071c8:	00 cd                	add    %cl,%ch
  4071ca:	6f                   	outsl  %ds:(%esi),(%dx)
  4071cb:	40                   	inc    %eax
  4071cc:	00 be 70 40 00 f8    	add    %bh,-0x7ffbf90(%esi)
  4071d2:	6c                   	insb   (%dx),%es:(%edi)
  4071d3:	40                   	inc    %eax
  4071d4:	00 0f                	add    %cl,(%edi)
  4071d6:	6d                   	insl   (%dx),%es:(%edi)
  4071d7:	40                   	inc    %eax
  4071d8:	00 0b                	add    %cl,(%ebx)
  4071da:	70 40                	jo     0x40721c
  4071dc:	00 1a                	add    %bl,(%edx)
  4071de:	70 40                	jo     0x407220
  4071e0:	00 3d 6d 40 00 bf    	add    %bh,0xbf00406d
  4071e6:	6a 40                	push   $0x40
  4071e8:	00 4a 6c             	add    %cl,0x6c(%edx)
  4071eb:	40                   	inc    %eax
  4071ec:	00 c7                	add    %al,%bh
  4071ee:	6e                   	outsb  %ds:(%esi),(%dx)
  4071ef:	40                   	inc    %eax
	...
